
build/boot/sextant.elf:	file format ELF32-i386


Disassembly of section .text:

00201000 __b_kernel:
  201000: 55                           	pushl	%ebp
  201001: 89 e5                        	movl	%esp, %ebp
  201003: 83 ec 08                     	subl	$8, %esp
  201006: 83 ec 0c                     	subl	$12, %esp
  201009: ff 75 10                     	pushl	16(%ebp)
  20100c: e8 c3 0e 00 00               	calll	3779 <_ZN5Ecran11sautDeLigneEv>
  201011: 83 c4 10                     	addl	$16, %esp
  201014: 83 ec 04                     	subl	$4, %esp
  201017: 6a 0f                        	pushl	$15
  201019: 68 b4 49 20 00               	pushl	$2116020
  20101e: ff 75 10                     	pushl	16(%ebp)
  201021: e8 96 10 00 00               	calll	4246 <_ZN5Ecran11afficherMotEPKc7Couleur>
  201026: 83 c4 10                     	addl	$16, %esp
  201029: 8d 45 08                     	leal	8(%ebp), %eax
  20102c: 6a 0f                        	pushl	$15
  20102e: 6a 10                        	pushl	$16
  201030: 50                           	pushl	%eax
  201031: ff 75 10                     	pushl	16(%ebp)
  201034: e8 79 13 00 00               	calll	4985 <_ZN5Ecran12afficherBaseEji7Couleur>
  201039: 83 c4 10                     	addl	$16, %esp
  20103c: 83 ec 0c                     	subl	$12, %esp
  20103f: ff 75 10                     	pushl	16(%ebp)
  201042: e8 8d 0e 00 00               	calll	3725 <_ZN5Ecran11sautDeLigneEv>
  201047: 83 c4 10                     	addl	$16, %esp
  20104a: 83 ec 04                     	subl	$4, %esp
  20104d: 6a 0f                        	pushl	$15
  20104f: 68 c4 49 20 00               	pushl	$2116036
  201054: ff 75 10                     	pushl	16(%ebp)
  201057: e8 60 10 00 00               	calll	4192 <_ZN5Ecran11afficherMotEPKc7Couleur>
  20105c: 83 c4 10                     	addl	$16, %esp
  20105f: 8d 45 0c                     	leal	12(%ebp), %eax
  201062: 6a 0f                        	pushl	$15
  201064: 6a 10                        	pushl	$16
  201066: 50                           	pushl	%eax
  201067: ff 75 10                     	pushl	16(%ebp)
  20106a: e8 43 13 00 00               	calll	4931 <_ZN5Ecran12afficherBaseEji7Couleur>
  20106f: 83 c4 10                     	addl	$16, %esp
  201072: 83 ec 0c                     	subl	$12, %esp
  201075: ff 75 10                     	pushl	16(%ebp)
  201078: e8 57 0e 00 00               	calll	3671 <_ZN5Ecran11sautDeLigneEv>
  20107d: 83 c4 10                     	addl	$16, %esp
  201080: 90                           	nop
  201081: c9                           	leave
  201082: c3                           	retl

00201083 func(int, int, Ecran*):
  201083: 55                           	pushl	%ebp
  201084: 89 e5                        	movl	%esp, %ebp
  201086: 83 ec 18                     	subl	$24, %esp
  201089: 8b 55 0c                     	movl	12(%ebp), %edx
  20108c: 8b 45 08                     	movl	8(%ebp), %eax
  20108f: 83 ec 04                     	subl	$4, %esp
  201092: ff 75 10                     	pushl	16(%ebp)
  201095: 52                           	pushl	%edx
  201096: 50                           	pushl	%eax
  201097: e8 64 ff ff ff               	calll	-156 <__b_kernel>
  20109c: 83 c4 10                     	addl	$16, %esp
  20109f: 83 ec 0c                     	subl	$12, %esp
  2010a2: ff 75 10                     	pushl	16(%ebp)
  2010a5: e8 2a 0e 00 00               	calll	3626 <_ZN5Ecran11sautDeLigneEv>
  2010aa: 83 c4 10                     	addl	$16, %esp
  2010ad: 83 ec 04                     	subl	$4, %esp
  2010b0: 6a 0f                        	pushl	$15
  2010b2: 68 d4 49 20 00               	pushl	$2116052
  2010b7: ff 75 10                     	pushl	16(%ebp)
  2010ba: e8 fd 0f 00 00               	calll	4093 <_ZN5Ecran11afficherMotEPKc7Couleur>
  2010bf: 83 c4 10                     	addl	$16, %esp
  2010c2: 8d 45 08                     	leal	8(%ebp), %eax
  2010c5: 6a 0f                        	pushl	$15
  2010c7: 6a 10                        	pushl	$16
  2010c9: 50                           	pushl	%eax
  2010ca: ff 75 10                     	pushl	16(%ebp)
  2010cd: e8 e0 12 00 00               	calll	4832 <_ZN5Ecran12afficherBaseEji7Couleur>
  2010d2: 83 c4 10                     	addl	$16, %esp
  2010d5: 83 ec 0c                     	subl	$12, %esp
  2010d8: ff 75 10                     	pushl	16(%ebp)
  2010db: e8 f4 0d 00 00               	calll	3572 <_ZN5Ecran11sautDeLigneEv>
  2010e0: 83 c4 10                     	addl	$16, %esp
  2010e3: 83 ec 04                     	subl	$4, %esp
  2010e6: 6a 0f                        	pushl	$15
  2010e8: 68 e4 49 20 00               	pushl	$2116068
  2010ed: ff 75 10                     	pushl	16(%ebp)
  2010f0: e8 c7 0f 00 00               	calll	4039 <_ZN5Ecran11afficherMotEPKc7Couleur>
  2010f5: 83 c4 10                     	addl	$16, %esp
  2010f8: 8d 45 0c                     	leal	12(%ebp), %eax
  2010fb: 6a 0f                        	pushl	$15
  2010fd: 6a 10                        	pushl	$16
  2010ff: 50                           	pushl	%eax
  201100: ff 75 10                     	pushl	16(%ebp)
  201103: e8 aa 12 00 00               	calll	4778 <_ZN5Ecran12afficherBaseEji7Couleur>
  201108: 83 c4 10                     	addl	$16, %esp
  20110b: 83 ec 0c                     	subl	$12, %esp
  20110e: ff 75 10                     	pushl	16(%ebp)
  201111: e8 be 0d 00 00               	calll	3518 <_ZN5Ecran11sautDeLigneEv>
  201116: 83 c4 10                     	addl	$16, %esp
  201119: 8d 45 08                     	leal	8(%ebp), %eax
  20111c: 89 45 f4                     	movl	%eax, -12(%ebp)
  20111f: 8b 45 f4                     	movl	-12(%ebp), %eax
  201122: 83 e8 04                     	subl	$4, %eax
  201125: 89 45 f4                     	movl	%eax, -12(%ebp)
  201128: 83 ec 04                     	subl	$4, %esp
  20112b: 6a 0f                        	pushl	$15
  20112d: 68 f4 49 20 00               	pushl	$2116084
  201132: ff 75 10                     	pushl	16(%ebp)
  201135: e8 82 0f 00 00               	calll	3970 <_ZN5Ecran11afficherMotEPKc7Couleur>
  20113a: 83 c4 10                     	addl	$16, %esp
  20113d: 8d 45 f4                     	leal	-12(%ebp), %eax
  201140: 6a 0f                        	pushl	$15
  201142: 6a 10                        	pushl	$16
  201144: 50                           	pushl	%eax
  201145: ff 75 10                     	pushl	16(%ebp)
  201148: e8 65 12 00 00               	calll	4709 <_ZN5Ecran12afficherBaseEji7Couleur>
  20114d: 83 c4 10                     	addl	$16, %esp
  201150: 83 ec 0c                     	subl	$12, %esp
  201153: ff 75 10                     	pushl	16(%ebp)
  201156: e8 79 0d 00 00               	calll	3449 <_ZN5Ecran11sautDeLigneEv>
  20115b: 83 c4 10                     	addl	$16, %esp
  20115e: 83 ec 04                     	subl	$4, %esp
  201161: 6a 0f                        	pushl	$15
  201163: 68 28 4a 20 00               	pushl	$2116136
  201168: ff 75 10                     	pushl	16(%ebp)
  20116b: e8 4c 0f 00 00               	calll	3916 <_ZN5Ecran11afficherMotEPKc7Couleur>
  201170: 83 c4 10                     	addl	$16, %esp
  201173: 8b 45 f4                     	movl	-12(%ebp), %eax
  201176: 8b 00                        	movl	(%eax), %eax
  201178: 6a 0f                        	pushl	$15
  20117a: 6a 10                        	pushl	$16
  20117c: 50                           	pushl	%eax
  20117d: ff 75 10                     	pushl	16(%ebp)
  201180: e8 2d 12 00 00               	calll	4653 <_ZN5Ecran12afficherBaseEji7Couleur>
  201185: 83 c4 10                     	addl	$16, %esp
  201188: 83 ec 0c                     	subl	$12, %esp
  20118b: ff 75 10                     	pushl	16(%ebp)
  20118e: e8 41 0d 00 00               	calll	3393 <_ZN5Ecran11sautDeLigneEv>
  201193: 83 c4 10                     	addl	$16, %esp
  201196: 83 ec 04                     	subl	$4, %esp
  201199: 6a 0f                        	pushl	$15
  20119b: 68 4c 4a 20 00               	pushl	$2116172
  2011a0: ff 75 10                     	pushl	16(%ebp)
  2011a3: e8 14 0f 00 00               	calll	3860 <_ZN5Ecran11afficherMotEPKc7Couleur>
  2011a8: 83 c4 10                     	addl	$16, %esp
  2011ab: 8b 45 f4                     	movl	-12(%ebp), %eax
  2011ae: 8b 00                        	movl	(%eax), %eax
  2011b0: 6a 0f                        	pushl	$15
  2011b2: 6a 10                        	pushl	$16
  2011b4: 50                           	pushl	%eax
  2011b5: ff 75 10                     	pushl	16(%ebp)
  2011b8: e8 f5 11 00 00               	calll	4597 <_ZN5Ecran12afficherBaseEji7Couleur>
  2011bd: 83 c4 10                     	addl	$16, %esp
  2011c0: 83 ec 0c                     	subl	$12, %esp
  2011c3: ff 75 10                     	pushl	16(%ebp)
  2011c6: e8 09 0d 00 00               	calll	3337 <_ZN5Ecran11sautDeLigneEv>
  2011cb: 83 c4 10                     	addl	$16, %esp
  2011ce: 90                           	nop
  2011cf: c9                           	leave
  2011d0: c3                           	retl

002011d1 Sextant_main:
  2011d1: 55                           	pushl	%ebp
  2011d2: 89 e5                        	movl	%esp, %ebp
  2011d4: 53                           	pushl	%ebx
  2011d5: 81 ec 44 f5 01 00            	subl	$128324, %esp
  2011db: 83 ec 04                     	subl	$4, %esp
  2011de: 8d 85 e6 fe ff ff            	leal	-282(%ebp), %eax
  2011e4: 50                           	pushl	%eax
  2011e5: 8d 85 e8 fe ff ff            	leal	-280(%ebp), %eax
  2011eb: 50                           	pushl	%eax
  2011ec: 8d 85 dc fe ff ff            	leal	-292(%ebp), %eax
  2011f2: 50                           	pushl	%eax
  2011f3: e8 c0 2c 00 00               	calll	11456 <_ZN7HorlogeC2EP5EcranP5Timer>
  2011f8: 83 c4 10                     	addl	$16, %esp
  2011fb: 83 ec 0c                     	subl	$12, %esp
  2011fe: 8d 85 b8 0a fe ff            	leal	-128328(%ebp), %eax
  201204: 50                           	pushl	%eax
  201205: e8 5e 01 00 00               	calll	350 <_ZN9SuperPongC2Ev>
  20120a: 83 c4 10                     	addl	$16, %esp
  20120d: 83 ec 08                     	subl	$8, %esp
  201210: 6a 00                        	pushl	$0
  201212: 8d 85 e8 fe ff ff            	leal	-280(%ebp), %eax
  201218: 50                           	pushl	%eax
  201219: e8 20 0d 00 00               	calll	3360 <_ZN5Ecran12effacerEcranE7Couleur>
  20121e: 83 c4 10                     	addl	$16, %esp
  201221: e8 0a 08 00 00               	calll	2058 <_Z9idt_setupv>
  201226: e8 c7 09 00 00               	calll	2503 <_Z9irq_setupv>
  20122b: 83 ec 08                     	subl	$8, %esp
  20122e: 68 e8 03 00 00               	pushl	$1000
  201233: 8d 85 e6 fe ff ff            	leal	-282(%ebp), %eax
  201239: 50                           	pushl	%eax
  20123a: e8 8b 14 00 00               	calll	5259 <_ZN5Timer19i8254_set_frequencyEj>
  20123f: 83 c4 10                     	addl	$16, %esp
  201242: 83 ec 08                     	subl	$8, %esp
  201245: 68 c7 3f 20 00               	pushl	$2113479
  20124a: 6a 00                        	pushl	$0
  20124c: e8 ae 09 00 00               	calll	2478 <_Z15irq_set_routineiPFviE>
  201251: 83 c4 10                     	addl	$16, %esp
  201254: fb                           	sti
  201255: 83 ec 08                     	subl	$8, %esp
  201258: 68 1b 46 20 00               	pushl	$2115099
  20125d: 6a 01                        	pushl	$1
  20125f: e8 9b 09 00 00               	calll	2459 <_Z15irq_set_routineiPFviE>
  201264: 83 c4 10                     	addl	$16, %esp
  201267: 83 ec 04                     	subl	$4, %esp
  20126a: 8d 85 db fe ff ff            	leal	-293(%ebp), %eax
  201270: 50                           	pushl	%eax
  201271: 8d 85 e8 fe ff ff            	leal	-280(%ebp), %eax
  201277: 50                           	pushl	%eax
  201278: 8d 85 b8 0a fe ff            	leal	-128328(%ebp), %eax
  20127e: 50                           	pushl	%eax
  20127f: e8 f0 1b 00 00               	calll	7152 <_ZN9SuperPong4initEP5EcranP7Clavier>
  201284: 83 c4 10                     	addl	$16, %esp
  201287: c7 05 00 79 20 00 00 00 00 00	movl	$0, 2128128 // i = 0
  201291: 83 ec 04                     	subl	$4, %esp
  201294: 8d 85 e8 fe ff ff            	leal	-280(%ebp), %eax
  20129a: 50                           	pushl	%eax
  20129b: 6a 02                        	pushl	$2
  20129d: 6a 01                        	pushl	$1
  20129f: e8 df fd ff ff               	calll	-545 <_Z4funciiP5Ecran>
  2012a4: 83 c4 10                     	addl	$16, %esp
  2012a7: c7 05 00 79 20 00 01 00 00 00	movl	$1, 2128128 // i = 1
  2012b1: 83 ec 04                     	subl	$4, %esp
  2012b4: 6a 0f                        	pushl	$15
  2012b6: 68 79 4a 20 00               	pushl	$2116217
  2012bb: 8d 85 e8 fe ff ff            	leal	-280(%ebp), %eax
  2012c1: 50                           	pushl	%eax
  2012c2: e8 f5 0d 00 00               	calll	3573 <_ZN5Ecran11afficherMotEPKc7Couleur>
  2012c7: 83 c4 10                     	addl	$16, %esp
  2012ca: a1 00 79 20 00               	movl	2128128, %eax
  2012cf: 6a 0f                        	pushl	$15
  2012d1: 6a 0a                        	pushl	$10
  2012d3: 50                           	pushl	%eax
  2012d4: 8d 85 e8 fe ff ff            	leal	-280(%ebp), %eax
  2012da: 50                           	pushl	%eax
  2012db: e8 d2 10 00 00               	calll	4306 <_ZN5Ecran12afficherBaseEji7Couleur>
  2012e0: 83 c4 10                     	addl	$16, %esp
  2012e3: 83 ec 0c                     	subl	$12, %esp
  2012e6: 8d 85 e8 fe ff ff            	leal	-280(%ebp), %eax
  2012ec: 50                           	pushl	%eax
  2012ed: e8 e2 0b 00 00               	calll	3042 <_ZN5Ecran11sautDeLigneEv>
  2012f2: 83 c4 10                     	addl	$16, %esp
  2012f5: 8b 45 0c                     	movl	12(%ebp), %eax
  2012f8: 89 45 f4                     	movl	%eax, -12(%ebp)
  2012fb: 8b 45 f4                     	movl	-12(%ebp), %eax
  2012fe: 8b 40 08                     	movl	8(%eax), %eax
  201301: c1 e0 0a                     	shll	$10, %eax
  201304: 05 00 00 10 00               	addl	$1048576, %eax
  201309: 89 c2                        	movl	%eax, %edx
  20130b: 83 ec 04                     	subl	$4, %esp
  20130e: 8d 85 e8 fe ff ff            	leal	-280(%ebp), %eax
  201314: 50                           	pushl	%eax
  201315: 52                           	pushl	%edx
  201316: 68 00 a0 24 00               	pushl	$2400256
  20131b: e8 3b 35 00 00               	calll	13627 <_Z9mem_setupPviP5Ecran>
  201320: 83 c4 10                     	addl	$16, %esp
  201323: 83 ec 0c                     	subl	$12, %esp
  201326: 68 20 f4 01 00               	pushl	$128032
  20132b: e8 f8 35 00 00               	calll	13816 <_Znwm>
  201330: 83 c4 10                     	addl	$16, %esp
  201333: 89 c3                        	movl	%eax, %ebx
  201335: 83 ec 0c                     	subl	$12, %esp
  201338: 53                           	pushl	%ebx
  201339: e8 2a 00 00 00               	calll	42 <_ZN9SuperPongC2Ev>
  20133e: 83 c4 10                     	addl	$16, %esp
  201341: 89 5d f0                     	movl	%ebx, -16(%ebp)
  201344: 83 ec 0c                     	subl	$12, %esp
  201347: 68 20 f4 01 00               	pushl	$128032
  20134c: e8 d7 35 00 00               	calll	13783 <_Znwm>
  201351: 83 c4 10                     	addl	$16, %esp
  201354: 89 c3                        	movl	%eax, %ebx
  201356: 83 ec 0c                     	subl	$12, %esp
  201359: 53                           	pushl	%ebx
  20135a: e8 09 00 00 00               	calll	9 <_ZN9SuperPongC2Ev>
  20135f: 83 c4 10                     	addl	$16, %esp
  201362: 89 5d f0                     	movl	%ebx, -16(%ebp)
  201365: eb fe                        	jmp	-2 <Sextant_main+0x194>
  201367: 90                           	nop

00201368 SuperPong::SuperPong():
  201368: 55                           	pushl	%ebp
  201369: 89 e5                        	movl	%esp, %ebp
  20136b: 83 ec 08                     	subl	$8, %esp
  20136e: 8b 45 08                     	movl	8(%ebp), %eax
  201371: 83 ec 0c                     	subl	$12, %esp
  201374: 50                           	pushl	%eax
  201375: e8 8a 1c 00 00               	calll	7306 <_ZN6GrilleC2Ev>
  20137a: 83 c4 10                     	addl	$16, %esp
  20137d: 90                           	nop
  20137e: c9                           	leave
  20137f: c3                           	retl

00201380 start:
  201380: bd 00 a0 24 00               	movl	$2400256, %ebp
  201385: 89 ec                        	movl	%ebp, %esp
  201387: 6a 00                        	pushl	$0
  201389: 9d                           	popfl
  20138a: 53                           	pushl	%ebx
  20138b: 50                           	pushl	%eax
  20138c: e8 40 fe ff ff               	calll	-448 <Sextant_main>

00201391 loop:
  201391: f4                           	hlt
  201392: eb fd                        	jmp	-3 <loop>

00201394 ecrireOctet(unsigned char, int):
  201394: 55                           	pushl	%ebp
  201395: 89 e5                        	movl	%esp, %ebp
  201397: 83 ec 04                     	subl	$4, %esp
  20139a: 8b 45 08                     	movl	8(%ebp), %eax
  20139d: 88 45 fc                     	movb	%al, -4(%ebp)
  2013a0: 8a 45 fc                     	movb	-4(%ebp), %al
  2013a3: 8b 55 0c                     	movl	12(%ebp), %edx
  2013a6: ee                           	outb	%al, %dx
  2013a7: 90                           	nop
  2013a8: c9                           	leave
  2013a9: c3                           	retl

002013aa ecrireMot(unsigned short, int):
  2013aa: 55                           	pushl	%ebp
  2013ab: 89 e5                        	movl	%esp, %ebp
  2013ad: 83 ec 04                     	subl	$4, %esp
  2013b0: 8b 45 08                     	movl	8(%ebp), %eax
  2013b3: 66 89 45 fc                  	movw	%ax, -4(%ebp)
  2013b7: 8b 45 fc                     	movl	-4(%ebp), %eax
  2013ba: 8b 55 0c                     	movl	12(%ebp), %edx
  2013bd: 66 ef                        	outw	%ax, %dx
  2013bf: 90                           	nop
  2013c0: c9                           	leave
  2013c1: c3                           	retl

002013c2 lireOctet(int):
  2013c2: 55                           	pushl	%ebp
  2013c3: 89 e5                        	movl	%esp, %ebp
  2013c5: 83 ec 10                     	subl	$16, %esp
  2013c8: 8b 45 08                     	movl	8(%ebp), %eax
  2013cb: 89 c2                        	movl	%eax, %edx
  2013cd: ec                           	inb	%dx, %al
  2013ce: 88 45 ff                     	movb	%al, -1(%ebp)
  2013d1: 8a 45 ff                     	movb	-1(%ebp), %al
  2013d4: c9                           	leave
  2013d5: c3                           	retl

002013d6 lireMot(int):
  2013d6: 55                           	pushl	%ebp
  2013d7: 89 e5                        	movl	%esp, %ebp
  2013d9: 83 ec 10                     	subl	$16, %esp
  2013dc: 8b 45 08                     	movl	8(%ebp), %eax
  2013df: 89 c2                        	movl	%eax, %edx
  2013e1: 66 ed                        	inw	%dx, %ax
  2013e3: 66 89 45 fe                  	movw	%ax, -2(%ebp)
  2013e7: 66 8b 45 fe                  	movw	-2(%ebp), %ax
  2013eb: c9                           	leave
  2013ec: c3                           	retl
  2013ed: 66 90                        	nop
  2013ef: 90                           	nop

002013f0 irq_wrapper_0:
  2013f0: 6a 00                        	pushl	$0
  2013f2: 55                           	pushl	%ebp
  2013f3: 89 e5                        	movl	%esp, %ebp
  2013f5: 57                           	pushl	%edi
  2013f6: 56                           	pushl	%esi
  2013f7: 52                           	pushl	%edx
  2013f8: 51                           	pushl	%ecx
  2013f9: 53                           	pushl	%ebx
  2013fa: 50                           	pushl	%eax
  2013fb: 83 ec 02                     	subl	$2, %esp
  2013fe: 66 16                        	pushw	%ss
  201400: 66 1e                        	pushw	%ds
  201402: 66 06                        	pushw	%es
  201404: 66 0f a0                     	pushw	%fs
  201407: 66 0f a8                     	pushw	%gs
  20140a: b0 20                        	movb	$32, %al
  20140c: e6 20                        	outb	%al, $32
  20140e: 6a 00                        	pushl	$0
  201410: 8d 3d 20 89 20 00            	leal	2132256, %edi
  201416: ff 17                        	calll	*(%edi)
  201418: 83 c4 04                     	addl	$4, %esp
  20141b: 66 0f a9                     	popw	%gs
  20141e: 66 0f a1                     	popw	%fs
  201421: 66 07                        	popw	%es
  201423: 66 1f                        	popw	%ds
  201425: 66 17                        	popw	%ss
  201427: 83 c4 02                     	addl	$2, %esp
  20142a: 58                           	popl	%eax
  20142b: 5b                           	popl	%ebx
  20142c: 59                           	popl	%ecx
  20142d: 5a                           	popl	%edx
  20142e: 5e                           	popl	%esi
  20142f: 5f                           	popl	%edi
  201430: 5d                           	popl	%ebp
  201431: 83 c4 04                     	addl	$4, %esp
  201434: cf                           	iretl
  201435: 8d 76 00                     	leal	(%esi), %esi

00201438 irq_wrapper_1:
  201438: 6a 00                        	pushl	$0
  20143a: 55                           	pushl	%ebp
  20143b: 89 e5                        	movl	%esp, %ebp
  20143d: 57                           	pushl	%edi
  20143e: 56                           	pushl	%esi
  20143f: 52                           	pushl	%edx
  201440: 51                           	pushl	%ecx
  201441: 53                           	pushl	%ebx
  201442: 50                           	pushl	%eax
  201443: 83 ec 02                     	subl	$2, %esp
  201446: 66 16                        	pushw	%ss
  201448: 66 1e                        	pushw	%ds
  20144a: 66 06                        	pushw	%es
  20144c: 66 0f a0                     	pushw	%fs
  20144f: 66 0f a8                     	pushw	%gs
  201452: b0 20                        	movb	$32, %al
  201454: e6 20                        	outb	%al, $32
  201456: 6a 01                        	pushl	$1
  201458: 8d 3d 20 89 20 00            	leal	2132256, %edi
  20145e: ff 57 04                     	calll	*4(%edi)
  201461: 83 c4 04                     	addl	$4, %esp
  201464: 66 0f a9                     	popw	%gs
  201467: 66 0f a1                     	popw	%fs
  20146a: 66 07                        	popw	%es
  20146c: 66 1f                        	popw	%ds
  20146e: 66 17                        	popw	%ss
  201470: 83 c4 02                     	addl	$2, %esp
  201473: 58                           	popl	%eax
  201474: 5b                           	popl	%ebx
  201475: 59                           	popl	%ecx
  201476: 5a                           	popl	%edx
  201477: 5e                           	popl	%esi
  201478: 5f                           	popl	%edi
  201479: 5d                           	popl	%ebp
  20147a: 83 c4 04                     	addl	$4, %esp
  20147d: cf                           	iretl
  20147e: 66 90                        	nop

00201480 irq_wrapper_2:
  201480: 6a 00                        	pushl	$0
  201482: 55                           	pushl	%ebp
  201483: 89 e5                        	movl	%esp, %ebp
  201485: 57                           	pushl	%edi
  201486: 56                           	pushl	%esi
  201487: 52                           	pushl	%edx
  201488: 51                           	pushl	%ecx
  201489: 53                           	pushl	%ebx
  20148a: 50                           	pushl	%eax
  20148b: 83 ec 02                     	subl	$2, %esp
  20148e: 66 16                        	pushw	%ss
  201490: 66 1e                        	pushw	%ds
  201492: 66 06                        	pushw	%es
  201494: 66 0f a0                     	pushw	%fs
  201497: 66 0f a8                     	pushw	%gs
  20149a: b0 20                        	movb	$32, %al
  20149c: e6 20                        	outb	%al, $32
  20149e: 6a 02                        	pushl	$2
  2014a0: 8d 3d 20 89 20 00            	leal	2132256, %edi
  2014a6: ff 57 08                     	calll	*8(%edi)
  2014a9: 83 c4 04                     	addl	$4, %esp
  2014ac: 66 0f a9                     	popw	%gs
  2014af: 66 0f a1                     	popw	%fs
  2014b2: 66 07                        	popw	%es
  2014b4: 66 1f                        	popw	%ds
  2014b6: 66 17                        	popw	%ss
  2014b8: 83 c4 02                     	addl	$2, %esp
  2014bb: 58                           	popl	%eax
  2014bc: 5b                           	popl	%ebx
  2014bd: 59                           	popl	%ecx
  2014be: 5a                           	popl	%edx
  2014bf: 5e                           	popl	%esi
  2014c0: 5f                           	popl	%edi
  2014c1: 5d                           	popl	%ebp
  2014c2: 83 c4 04                     	addl	$4, %esp
  2014c5: cf                           	iretl
  2014c6: 66 90                        	nop

002014c8 irq_wrapper_3:
  2014c8: 6a 00                        	pushl	$0
  2014ca: 55                           	pushl	%ebp
  2014cb: 89 e5                        	movl	%esp, %ebp
  2014cd: 57                           	pushl	%edi
  2014ce: 56                           	pushl	%esi
  2014cf: 52                           	pushl	%edx
  2014d0: 51                           	pushl	%ecx
  2014d1: 53                           	pushl	%ebx
  2014d2: 50                           	pushl	%eax
  2014d3: 83 ec 02                     	subl	$2, %esp
  2014d6: 66 16                        	pushw	%ss
  2014d8: 66 1e                        	pushw	%ds
  2014da: 66 06                        	pushw	%es
  2014dc: 66 0f a0                     	pushw	%fs
  2014df: 66 0f a8                     	pushw	%gs
  2014e2: b0 20                        	movb	$32, %al
  2014e4: e6 20                        	outb	%al, $32
  2014e6: 6a 03                        	pushl	$3
  2014e8: 8d 3d 20 89 20 00            	leal	2132256, %edi
  2014ee: ff 57 0c                     	calll	*12(%edi)
  2014f1: 83 c4 04                     	addl	$4, %esp
  2014f4: 66 0f a9                     	popw	%gs
  2014f7: 66 0f a1                     	popw	%fs
  2014fa: 66 07                        	popw	%es
  2014fc: 66 1f                        	popw	%ds
  2014fe: 66 17                        	popw	%ss
  201500: 83 c4 02                     	addl	$2, %esp
  201503: 58                           	popl	%eax
  201504: 5b                           	popl	%ebx
  201505: 59                           	popl	%ecx
  201506: 5a                           	popl	%edx
  201507: 5e                           	popl	%esi
  201508: 5f                           	popl	%edi
  201509: 5d                           	popl	%ebp
  20150a: 83 c4 04                     	addl	$4, %esp
  20150d: cf                           	iretl
  20150e: 66 90                        	nop

00201510 irq_wrapper_4:
  201510: 6a 00                        	pushl	$0
  201512: 55                           	pushl	%ebp
  201513: 89 e5                        	movl	%esp, %ebp
  201515: 57                           	pushl	%edi
  201516: 56                           	pushl	%esi
  201517: 52                           	pushl	%edx
  201518: 51                           	pushl	%ecx
  201519: 53                           	pushl	%ebx
  20151a: 50                           	pushl	%eax
  20151b: 83 ec 02                     	subl	$2, %esp
  20151e: 66 16                        	pushw	%ss
  201520: 66 1e                        	pushw	%ds
  201522: 66 06                        	pushw	%es
  201524: 66 0f a0                     	pushw	%fs
  201527: 66 0f a8                     	pushw	%gs
  20152a: b0 20                        	movb	$32, %al
  20152c: e6 20                        	outb	%al, $32
  20152e: 6a 04                        	pushl	$4
  201530: 8d 3d 20 89 20 00            	leal	2132256, %edi
  201536: ff 57 10                     	calll	*16(%edi)
  201539: 83 c4 04                     	addl	$4, %esp
  20153c: 66 0f a9                     	popw	%gs
  20153f: 66 0f a1                     	popw	%fs
  201542: 66 07                        	popw	%es
  201544: 66 1f                        	popw	%ds
  201546: 66 17                        	popw	%ss
  201548: 83 c4 02                     	addl	$2, %esp
  20154b: 58                           	popl	%eax
  20154c: 5b                           	popl	%ebx
  20154d: 59                           	popl	%ecx
  20154e: 5a                           	popl	%edx
  20154f: 5e                           	popl	%esi
  201550: 5f                           	popl	%edi
  201551: 5d                           	popl	%ebp
  201552: 83 c4 04                     	addl	$4, %esp
  201555: cf                           	iretl
  201556: 66 90                        	nop

00201558 irq_wrapper_5:
  201558: 6a 00                        	pushl	$0
  20155a: 55                           	pushl	%ebp
  20155b: 89 e5                        	movl	%esp, %ebp
  20155d: 57                           	pushl	%edi
  20155e: 56                           	pushl	%esi
  20155f: 52                           	pushl	%edx
  201560: 51                           	pushl	%ecx
  201561: 53                           	pushl	%ebx
  201562: 50                           	pushl	%eax
  201563: 83 ec 02                     	subl	$2, %esp
  201566: 66 16                        	pushw	%ss
  201568: 66 1e                        	pushw	%ds
  20156a: 66 06                        	pushw	%es
  20156c: 66 0f a0                     	pushw	%fs
  20156f: 66 0f a8                     	pushw	%gs
  201572: b0 20                        	movb	$32, %al
  201574: e6 20                        	outb	%al, $32
  201576: 6a 05                        	pushl	$5
  201578: 8d 3d 20 89 20 00            	leal	2132256, %edi
  20157e: ff 57 14                     	calll	*20(%edi)
  201581: 83 c4 04                     	addl	$4, %esp
  201584: 66 0f a9                     	popw	%gs
  201587: 66 0f a1                     	popw	%fs
  20158a: 66 07                        	popw	%es
  20158c: 66 1f                        	popw	%ds
  20158e: 66 17                        	popw	%ss
  201590: 83 c4 02                     	addl	$2, %esp
  201593: 58                           	popl	%eax
  201594: 5b                           	popl	%ebx
  201595: 59                           	popl	%ecx
  201596: 5a                           	popl	%edx
  201597: 5e                           	popl	%esi
  201598: 5f                           	popl	%edi
  201599: 5d                           	popl	%ebp
  20159a: 83 c4 04                     	addl	$4, %esp
  20159d: cf                           	iretl
  20159e: 66 90                        	nop

002015a0 irq_wrapper_6:
  2015a0: 6a 00                        	pushl	$0
  2015a2: 55                           	pushl	%ebp
  2015a3: 89 e5                        	movl	%esp, %ebp
  2015a5: 57                           	pushl	%edi
  2015a6: 56                           	pushl	%esi
  2015a7: 52                           	pushl	%edx
  2015a8: 51                           	pushl	%ecx
  2015a9: 53                           	pushl	%ebx
  2015aa: 50                           	pushl	%eax
  2015ab: 83 ec 02                     	subl	$2, %esp
  2015ae: 66 16                        	pushw	%ss
  2015b0: 66 1e                        	pushw	%ds
  2015b2: 66 06                        	pushw	%es
  2015b4: 66 0f a0                     	pushw	%fs
  2015b7: 66 0f a8                     	pushw	%gs
  2015ba: b0 20                        	movb	$32, %al
  2015bc: e6 20                        	outb	%al, $32
  2015be: 6a 06                        	pushl	$6
  2015c0: 8d 3d 20 89 20 00            	leal	2132256, %edi
  2015c6: ff 57 18                     	calll	*24(%edi)
  2015c9: 83 c4 04                     	addl	$4, %esp
  2015cc: 66 0f a9                     	popw	%gs
  2015cf: 66 0f a1                     	popw	%fs
  2015d2: 66 07                        	popw	%es
  2015d4: 66 1f                        	popw	%ds
  2015d6: 66 17                        	popw	%ss
  2015d8: 83 c4 02                     	addl	$2, %esp
  2015db: 58                           	popl	%eax
  2015dc: 5b                           	popl	%ebx
  2015dd: 59                           	popl	%ecx
  2015de: 5a                           	popl	%edx
  2015df: 5e                           	popl	%esi
  2015e0: 5f                           	popl	%edi
  2015e1: 5d                           	popl	%ebp
  2015e2: 83 c4 04                     	addl	$4, %esp
  2015e5: cf                           	iretl
  2015e6: 66 90                        	nop

002015e8 irq_wrapper_7:
  2015e8: 6a 00                        	pushl	$0
  2015ea: 55                           	pushl	%ebp
  2015eb: 89 e5                        	movl	%esp, %ebp
  2015ed: 57                           	pushl	%edi
  2015ee: 56                           	pushl	%esi
  2015ef: 52                           	pushl	%edx
  2015f0: 51                           	pushl	%ecx
  2015f1: 53                           	pushl	%ebx
  2015f2: 50                           	pushl	%eax
  2015f3: 83 ec 02                     	subl	$2, %esp
  2015f6: 66 16                        	pushw	%ss
  2015f8: 66 1e                        	pushw	%ds
  2015fa: 66 06                        	pushw	%es
  2015fc: 66 0f a0                     	pushw	%fs
  2015ff: 66 0f a8                     	pushw	%gs
  201602: b0 20                        	movb	$32, %al
  201604: e6 20                        	outb	%al, $32
  201606: 6a 07                        	pushl	$7
  201608: 8d 3d 20 89 20 00            	leal	2132256, %edi
  20160e: ff 57 1c                     	calll	*28(%edi)
  201611: 83 c4 04                     	addl	$4, %esp
  201614: 66 0f a9                     	popw	%gs
  201617: 66 0f a1                     	popw	%fs
  20161a: 66 07                        	popw	%es
  20161c: 66 1f                        	popw	%ds
  20161e: 66 17                        	popw	%ss
  201620: 83 c4 02                     	addl	$2, %esp
  201623: 58                           	popl	%eax
  201624: 5b                           	popl	%ebx
  201625: 59                           	popl	%ecx
  201626: 5a                           	popl	%edx
  201627: 5e                           	popl	%esi
  201628: 5f                           	popl	%edi
  201629: 5d                           	popl	%ebp
  20162a: 83 c4 04                     	addl	$4, %esp
  20162d: cf                           	iretl
  20162e: 66 90                        	nop

00201630 irq_wrapper_8:
  201630: 6a 00                        	pushl	$0
  201632: 55                           	pushl	%ebp
  201633: 89 e5                        	movl	%esp, %ebp
  201635: 57                           	pushl	%edi
  201636: 56                           	pushl	%esi
  201637: 52                           	pushl	%edx
  201638: 51                           	pushl	%ecx
  201639: 53                           	pushl	%ebx
  20163a: 50                           	pushl	%eax
  20163b: 83 ec 02                     	subl	$2, %esp
  20163e: 66 16                        	pushw	%ss
  201640: 66 1e                        	pushw	%ds
  201642: 66 06                        	pushw	%es
  201644: 66 0f a0                     	pushw	%fs
  201647: 66 0f a8                     	pushw	%gs
  20164a: b0 20                        	movb	$32, %al
  20164c: e6 a0                        	outb	%al, $160
  20164e: e6 20                        	outb	%al, $32
  201650: 6a 08                        	pushl	$8
  201652: 8d 3d 20 89 20 00            	leal	2132256, %edi
  201658: ff 57 20                     	calll	*32(%edi)
  20165b: 83 c4 04                     	addl	$4, %esp
  20165e: 66 0f a9                     	popw	%gs
  201661: 66 0f a1                     	popw	%fs
  201664: 66 07                        	popw	%es
  201666: 66 1f                        	popw	%ds
  201668: 66 17                        	popw	%ss
  20166a: 83 c4 02                     	addl	$2, %esp
  20166d: 58                           	popl	%eax
  20166e: 5b                           	popl	%ebx
  20166f: 59                           	popl	%ecx
  201670: 5a                           	popl	%edx
  201671: 5e                           	popl	%esi
  201672: 5f                           	popl	%edi
  201673: 5d                           	popl	%ebp
  201674: 83 c4 04                     	addl	$4, %esp
  201677: cf                           	iretl

00201678 irq_wrapper_9:
  201678: 6a 00                        	pushl	$0
  20167a: 55                           	pushl	%ebp
  20167b: 89 e5                        	movl	%esp, %ebp
  20167d: 57                           	pushl	%edi
  20167e: 56                           	pushl	%esi
  20167f: 52                           	pushl	%edx
  201680: 51                           	pushl	%ecx
  201681: 53                           	pushl	%ebx
  201682: 50                           	pushl	%eax
  201683: 83 ec 02                     	subl	$2, %esp
  201686: 66 16                        	pushw	%ss
  201688: 66 1e                        	pushw	%ds
  20168a: 66 06                        	pushw	%es
  20168c: 66 0f a0                     	pushw	%fs
  20168f: 66 0f a8                     	pushw	%gs
  201692: b0 20                        	movb	$32, %al
  201694: e6 a0                        	outb	%al, $160
  201696: e6 20                        	outb	%al, $32
  201698: 6a 09                        	pushl	$9
  20169a: 8d 3d 20 89 20 00            	leal	2132256, %edi
  2016a0: ff 57 24                     	calll	*36(%edi)
  2016a3: 83 c4 04                     	addl	$4, %esp
  2016a6: 66 0f a9                     	popw	%gs
  2016a9: 66 0f a1                     	popw	%fs
  2016ac: 66 07                        	popw	%es
  2016ae: 66 1f                        	popw	%ds
  2016b0: 66 17                        	popw	%ss
  2016b2: 83 c4 02                     	addl	$2, %esp
  2016b5: 58                           	popl	%eax
  2016b6: 5b                           	popl	%ebx
  2016b7: 59                           	popl	%ecx
  2016b8: 5a                           	popl	%edx
  2016b9: 5e                           	popl	%esi
  2016ba: 5f                           	popl	%edi
  2016bb: 5d                           	popl	%ebp
  2016bc: 83 c4 04                     	addl	$4, %esp
  2016bf: cf                           	iretl

002016c0 irq_wrapper_10:
  2016c0: 6a 00                        	pushl	$0
  2016c2: 55                           	pushl	%ebp
  2016c3: 89 e5                        	movl	%esp, %ebp
  2016c5: 57                           	pushl	%edi
  2016c6: 56                           	pushl	%esi
  2016c7: 52                           	pushl	%edx
  2016c8: 51                           	pushl	%ecx
  2016c9: 53                           	pushl	%ebx
  2016ca: 50                           	pushl	%eax
  2016cb: 83 ec 02                     	subl	$2, %esp
  2016ce: 66 16                        	pushw	%ss
  2016d0: 66 1e                        	pushw	%ds
  2016d2: 66 06                        	pushw	%es
  2016d4: 66 0f a0                     	pushw	%fs
  2016d7: 66 0f a8                     	pushw	%gs
  2016da: b0 20                        	movb	$32, %al
  2016dc: e6 a0                        	outb	%al, $160
  2016de: e6 20                        	outb	%al, $32
  2016e0: 6a 0a                        	pushl	$10
  2016e2: 8d 3d 20 89 20 00            	leal	2132256, %edi
  2016e8: ff 57 28                     	calll	*40(%edi)
  2016eb: 83 c4 04                     	addl	$4, %esp
  2016ee: 66 0f a9                     	popw	%gs
  2016f1: 66 0f a1                     	popw	%fs
  2016f4: 66 07                        	popw	%es
  2016f6: 66 1f                        	popw	%ds
  2016f8: 66 17                        	popw	%ss
  2016fa: 83 c4 02                     	addl	$2, %esp
  2016fd: 58                           	popl	%eax
  2016fe: 5b                           	popl	%ebx
  2016ff: 59                           	popl	%ecx
  201700: 5a                           	popl	%edx
  201701: 5e                           	popl	%esi
  201702: 5f                           	popl	%edi
  201703: 5d                           	popl	%ebp
  201704: 83 c4 04                     	addl	$4, %esp
  201707: cf                           	iretl

00201708 irq_wrapper_11:
  201708: 6a 00                        	pushl	$0
  20170a: 55                           	pushl	%ebp
  20170b: 89 e5                        	movl	%esp, %ebp
  20170d: 57                           	pushl	%edi
  20170e: 56                           	pushl	%esi
  20170f: 52                           	pushl	%edx
  201710: 51                           	pushl	%ecx
  201711: 53                           	pushl	%ebx
  201712: 50                           	pushl	%eax
  201713: 83 ec 02                     	subl	$2, %esp
  201716: 66 16                        	pushw	%ss
  201718: 66 1e                        	pushw	%ds
  20171a: 66 06                        	pushw	%es
  20171c: 66 0f a0                     	pushw	%fs
  20171f: 66 0f a8                     	pushw	%gs
  201722: b0 20                        	movb	$32, %al
  201724: e6 a0                        	outb	%al, $160
  201726: e6 20                        	outb	%al, $32
  201728: 6a 0b                        	pushl	$11
  20172a: 8d 3d 20 89 20 00            	leal	2132256, %edi
  201730: ff 57 2c                     	calll	*44(%edi)
  201733: 83 c4 04                     	addl	$4, %esp
  201736: 66 0f a9                     	popw	%gs
  201739: 66 0f a1                     	popw	%fs
  20173c: 66 07                        	popw	%es
  20173e: 66 1f                        	popw	%ds
  201740: 66 17                        	popw	%ss
  201742: 83 c4 02                     	addl	$2, %esp
  201745: 58                           	popl	%eax
  201746: 5b                           	popl	%ebx
  201747: 59                           	popl	%ecx
  201748: 5a                           	popl	%edx
  201749: 5e                           	popl	%esi
  20174a: 5f                           	popl	%edi
  20174b: 5d                           	popl	%ebp
  20174c: 83 c4 04                     	addl	$4, %esp
  20174f: cf                           	iretl

00201750 irq_wrapper_12:
  201750: 6a 00                        	pushl	$0
  201752: 55                           	pushl	%ebp
  201753: 89 e5                        	movl	%esp, %ebp
  201755: 57                           	pushl	%edi
  201756: 56                           	pushl	%esi
  201757: 52                           	pushl	%edx
  201758: 51                           	pushl	%ecx
  201759: 53                           	pushl	%ebx
  20175a: 50                           	pushl	%eax
  20175b: 83 ec 02                     	subl	$2, %esp
  20175e: 66 16                        	pushw	%ss
  201760: 66 1e                        	pushw	%ds
  201762: 66 06                        	pushw	%es
  201764: 66 0f a0                     	pushw	%fs
  201767: 66 0f a8                     	pushw	%gs
  20176a: b0 20                        	movb	$32, %al
  20176c: e6 a0                        	outb	%al, $160
  20176e: e6 20                        	outb	%al, $32
  201770: 6a 0c                        	pushl	$12
  201772: 8d 3d 20 89 20 00            	leal	2132256, %edi
  201778: ff 57 30                     	calll	*48(%edi)
  20177b: 83 c4 04                     	addl	$4, %esp
  20177e: 66 0f a9                     	popw	%gs
  201781: 66 0f a1                     	popw	%fs
  201784: 66 07                        	popw	%es
  201786: 66 1f                        	popw	%ds
  201788: 66 17                        	popw	%ss
  20178a: 83 c4 02                     	addl	$2, %esp
  20178d: 58                           	popl	%eax
  20178e: 5b                           	popl	%ebx
  20178f: 59                           	popl	%ecx
  201790: 5a                           	popl	%edx
  201791: 5e                           	popl	%esi
  201792: 5f                           	popl	%edi
  201793: 5d                           	popl	%ebp
  201794: 83 c4 04                     	addl	$4, %esp
  201797: cf                           	iretl

00201798 irq_wrapper_13:
  201798: 6a 00                        	pushl	$0
  20179a: 55                           	pushl	%ebp
  20179b: 89 e5                        	movl	%esp, %ebp
  20179d: 57                           	pushl	%edi
  20179e: 56                           	pushl	%esi
  20179f: 52                           	pushl	%edx
  2017a0: 51                           	pushl	%ecx
  2017a1: 53                           	pushl	%ebx
  2017a2: 50                           	pushl	%eax
  2017a3: 83 ec 02                     	subl	$2, %esp
  2017a6: 66 16                        	pushw	%ss
  2017a8: 66 1e                        	pushw	%ds
  2017aa: 66 06                        	pushw	%es
  2017ac: 66 0f a0                     	pushw	%fs
  2017af: 66 0f a8                     	pushw	%gs
  2017b2: b0 20                        	movb	$32, %al
  2017b4: e6 a0                        	outb	%al, $160
  2017b6: e6 20                        	outb	%al, $32
  2017b8: 6a 0d                        	pushl	$13
  2017ba: 8d 3d 20 89 20 00            	leal	2132256, %edi
  2017c0: ff 57 34                     	calll	*52(%edi)
  2017c3: 83 c4 04                     	addl	$4, %esp
  2017c6: 66 0f a9                     	popw	%gs
  2017c9: 66 0f a1                     	popw	%fs
  2017cc: 66 07                        	popw	%es
  2017ce: 66 1f                        	popw	%ds
  2017d0: 66 17                        	popw	%ss
  2017d2: 83 c4 02                     	addl	$2, %esp
  2017d5: 58                           	popl	%eax
  2017d6: 5b                           	popl	%ebx
  2017d7: 59                           	popl	%ecx
  2017d8: 5a                           	popl	%edx
  2017d9: 5e                           	popl	%esi
  2017da: 5f                           	popl	%edi
  2017db: 5d                           	popl	%ebp
  2017dc: 83 c4 04                     	addl	$4, %esp
  2017df: cf                           	iretl

002017e0 irq_wrapper_14:
  2017e0: 6a 00                        	pushl	$0
  2017e2: 55                           	pushl	%ebp
  2017e3: 89 e5                        	movl	%esp, %ebp
  2017e5: 57                           	pushl	%edi
  2017e6: 56                           	pushl	%esi
  2017e7: 52                           	pushl	%edx
  2017e8: 51                           	pushl	%ecx
  2017e9: 53                           	pushl	%ebx
  2017ea: 50                           	pushl	%eax
  2017eb: 83 ec 02                     	subl	$2, %esp
  2017ee: 66 16                        	pushw	%ss
  2017f0: 66 1e                        	pushw	%ds
  2017f2: 66 06                        	pushw	%es
  2017f4: 66 0f a0                     	pushw	%fs
  2017f7: 66 0f a8                     	pushw	%gs
  2017fa: b0 20                        	movb	$32, %al
  2017fc: e6 a0                        	outb	%al, $160
  2017fe: e6 20                        	outb	%al, $32
  201800: 6a 0e                        	pushl	$14
  201802: 8d 3d 20 89 20 00            	leal	2132256, %edi
  201808: ff 57 38                     	calll	*56(%edi)
  20180b: 83 c4 04                     	addl	$4, %esp
  20180e: 66 0f a9                     	popw	%gs
  201811: 66 0f a1                     	popw	%fs
  201814: 66 07                        	popw	%es
  201816: 66 1f                        	popw	%ds
  201818: 66 17                        	popw	%ss
  20181a: 83 c4 02                     	addl	$2, %esp
  20181d: 58                           	popl	%eax
  20181e: 5b                           	popl	%ebx
  20181f: 59                           	popl	%ecx
  201820: 5a                           	popl	%edx
  201821: 5e                           	popl	%esi
  201822: 5f                           	popl	%edi
  201823: 5d                           	popl	%ebp
  201824: 83 c4 04                     	addl	$4, %esp
  201827: cf                           	iretl

00201828 irq_wrapper_15:
  201828: 6a 00                        	pushl	$0
  20182a: 55                           	pushl	%ebp
  20182b: 89 e5                        	movl	%esp, %ebp
  20182d: 57                           	pushl	%edi
  20182e: 56                           	pushl	%esi
  20182f: 52                           	pushl	%edx
  201830: 51                           	pushl	%ecx
  201831: 53                           	pushl	%ebx
  201832: 50                           	pushl	%eax
  201833: 83 ec 02                     	subl	$2, %esp
  201836: 66 16                        	pushw	%ss
  201838: 66 1e                        	pushw	%ds
  20183a: 66 06                        	pushw	%es
  20183c: 66 0f a0                     	pushw	%fs
  20183f: 66 0f a8                     	pushw	%gs
  201842: b0 20                        	movb	$32, %al
  201844: e6 a0                        	outb	%al, $160
  201846: e6 20                        	outb	%al, $32
  201848: 6a 0f                        	pushl	$15
  20184a: 8d 3d 20 89 20 00            	leal	2132256, %edi
  201850: ff 57 3c                     	calll	*60(%edi)
  201853: 83 c4 04                     	addl	$4, %esp
  201856: 66 0f a9                     	popw	%gs
  201859: 66 0f a1                     	popw	%fs
  20185c: 66 07                        	popw	%es
  20185e: 66 1f                        	popw	%ds
  201860: 66 17                        	popw	%ss
  201862: 83 c4 02                     	addl	$2, %esp
  201865: 58                           	popl	%eax
  201866: 5b                           	popl	%ebx
  201867: 59                           	popl	%ecx
  201868: 5a                           	popl	%edx
  201869: 5e                           	popl	%esi
  20186a: 5f                           	popl	%edi
  20186b: 5d                           	popl	%ebp
  20186c: 83 c4 04                     	addl	$4, %esp
  20186f: cf                           	iretl

00201870 i8259_setup():
  201870: 55                           	pushl	%ebp
  201871: 89 e5                        	movl	%esp, %ebp
  201873: 83 ec 08                     	subl	$8, %esp
  201876: 83 ec 08                     	subl	$8, %esp
  201879: 6a 20                        	pushl	$32
  20187b: 6a 11                        	pushl	$17
  20187d: e8 12 fb ff ff               	calll	-1262 <_Z11ecrireOctethi>
  201882: 83 c4 10                     	addl	$16, %esp
  201885: 83 ec 08                     	subl	$8, %esp
  201888: 68 a0 00 00 00               	pushl	$160
  20188d: 6a 11                        	pushl	$17
  20188f: e8 00 fb ff ff               	calll	-1280 <_Z11ecrireOctethi>
  201894: 83 c4 10                     	addl	$16, %esp
  201897: 83 ec 08                     	subl	$8, %esp
  20189a: 6a 21                        	pushl	$33
  20189c: 6a 20                        	pushl	$32
  20189e: e8 f1 fa ff ff               	calll	-1295 <_Z11ecrireOctethi>
  2018a3: 83 c4 10                     	addl	$16, %esp
  2018a6: 83 ec 08                     	subl	$8, %esp
  2018a9: 68 a1 00 00 00               	pushl	$161
  2018ae: 6a 28                        	pushl	$40
  2018b0: e8 df fa ff ff               	calll	-1313 <_Z11ecrireOctethi>
  2018b5: 83 c4 10                     	addl	$16, %esp
  2018b8: 83 ec 08                     	subl	$8, %esp
  2018bb: 6a 21                        	pushl	$33
  2018bd: 6a 04                        	pushl	$4
  2018bf: e8 d0 fa ff ff               	calll	-1328 <_Z11ecrireOctethi>
  2018c4: 83 c4 10                     	addl	$16, %esp
  2018c7: 83 ec 08                     	subl	$8, %esp
  2018ca: 68 a1 00 00 00               	pushl	$161
  2018cf: 6a 02                        	pushl	$2
  2018d1: e8 be fa ff ff               	calll	-1346 <_Z11ecrireOctethi>
  2018d6: 83 c4 10                     	addl	$16, %esp
  2018d9: 83 ec 08                     	subl	$8, %esp
  2018dc: 6a 21                        	pushl	$33
  2018de: 6a 01                        	pushl	$1
  2018e0: e8 af fa ff ff               	calll	-1361 <_Z11ecrireOctethi>
  2018e5: 83 c4 10                     	addl	$16, %esp
  2018e8: 83 ec 08                     	subl	$8, %esp
  2018eb: 68 a1 00 00 00               	pushl	$161
  2018f0: 6a 01                        	pushl	$1
  2018f2: e8 9d fa ff ff               	calll	-1379 <_Z11ecrireOctethi>
  2018f7: 83 c4 10                     	addl	$16, %esp
  2018fa: 83 ec 08                     	subl	$8, %esp
  2018fd: 6a 21                        	pushl	$33
  2018ff: 68 fb 00 00 00               	pushl	$251
  201904: e8 8b fa ff ff               	calll	-1397 <_Z11ecrireOctethi>
  201909: 83 c4 10                     	addl	$16, %esp
  20190c: 83 ec 08                     	subl	$8, %esp
  20190f: 68 a1 00 00 00               	pushl	$161
  201914: 68 ff 00 00 00               	pushl	$255
  201919: e8 76 fa ff ff               	calll	-1418 <_Z11ecrireOctethi>
  20191e: 83 c4 10                     	addl	$16, %esp
  201921: b8 00 00 00 00               	movl	$0, %eax
  201926: c9                           	leave
  201927: c3                           	retl

00201928 i8259_enable_irq_line(int):
  201928: 55                           	pushl	%ebp
  201929: 89 e5                        	movl	%esp, %ebp
  20192b: 53                           	pushl	%ebx
  20192c: 83 ec 04                     	subl	$4, %esp
  20192f: 83 7d 08 07                  	cmpl	$7, 8(%ebp)
  201933: 7f 34                        	jg	52 <_Z21i8259_enable_irq_linei+0x41>
  201935: 83 ec 0c                     	subl	$12, %esp
  201938: 6a 21                        	pushl	$33
  20193a: e8 83 fa ff ff               	calll	-1405 <_Z9lireOcteti>
  20193f: 83 c4 10                     	addl	$16, %esp
  201942: 88 c2                        	movb	%al, %dl
  201944: 8b 45 08                     	movl	8(%ebp), %eax
  201947: bb 01 00 00 00               	movl	$1, %ebx
  20194c: 88 c1                        	movb	%al, %cl
  20194e: d3 e3                        	shll	%cl, %ebx
  201950: 89 d8                        	movl	%ebx, %eax
  201952: f7 d0                        	notl	%eax
  201954: 21 d0                        	andl	%edx, %eax
  201956: 0f b6 c0                     	movzbl	%al, %eax
  201959: 83 ec 08                     	subl	$8, %esp
  20195c: 6a 21                        	pushl	$33
  20195e: 50                           	pushl	%eax
  20195f: e8 30 fa ff ff               	calll	-1488 <_Z11ecrireOctethi>
  201964: 83 c4 10                     	addl	$16, %esp
  201967: eb 3b                        	jmp	59 <_Z21i8259_enable_irq_linei+0x7c>
  201969: 83 ec 0c                     	subl	$12, %esp
  20196c: 68 a1 00 00 00               	pushl	$161
  201971: e8 4c fa ff ff               	calll	-1460 <_Z9lireOcteti>
  201976: 83 c4 10                     	addl	$16, %esp
  201979: 88 c2                        	movb	%al, %dl
  20197b: 8b 45 08                     	movl	8(%ebp), %eax
  20197e: 83 e8 08                     	subl	$8, %eax
  201981: bb 01 00 00 00               	movl	$1, %ebx
  201986: 88 c1                        	movb	%al, %cl
  201988: d3 e3                        	shll	%cl, %ebx
  20198a: 89 d8                        	movl	%ebx, %eax
  20198c: f7 d0                        	notl	%eax
  20198e: 21 d0                        	andl	%edx, %eax
  201990: 0f b6 c0                     	movzbl	%al, %eax
  201993: 83 ec 08                     	subl	$8, %esp
  201996: 68 a1 00 00 00               	pushl	$161
  20199b: 50                           	pushl	%eax
  20199c: e8 f3 f9 ff ff               	calll	-1549 <_Z11ecrireOctethi>
  2019a1: 83 c4 10                     	addl	$16, %esp
  2019a4: b8 00 00 00 00               	movl	$0, %eax
  2019a9: 8b 5d fc                     	movl	-4(%ebp), %ebx
  2019ac: c9                           	leave
  2019ad: c3                           	retl

002019ae i8259_disable_irq_line(int):
  2019ae: 55                           	pushl	%ebp
  2019af: 89 e5                        	movl	%esp, %ebp
  2019b1: 53                           	pushl	%ebx
  2019b2: 83 ec 04                     	subl	$4, %esp
  2019b5: 83 7d 08 07                  	cmpl	$7, 8(%ebp)
  2019b9: 7f 32                        	jg	50 <_Z22i8259_disable_irq_linei+0x3f>
  2019bb: 83 ec 0c                     	subl	$12, %esp
  2019be: 6a 21                        	pushl	$33
  2019c0: e8 fd f9 ff ff               	calll	-1539 <_Z9lireOcteti>
  2019c5: 83 c4 10                     	addl	$16, %esp
  2019c8: 88 c2                        	movb	%al, %dl
  2019ca: 8b 45 08                     	movl	8(%ebp), %eax
  2019cd: bb 01 00 00 00               	movl	$1, %ebx
  2019d2: 88 c1                        	movb	%al, %cl
  2019d4: d3 e3                        	shll	%cl, %ebx
  2019d6: 89 d8                        	movl	%ebx, %eax
  2019d8: 09 d0                        	orl	%edx, %eax
  2019da: 0f b6 c0                     	movzbl	%al, %eax
  2019dd: 83 ec 08                     	subl	$8, %esp
  2019e0: 6a 21                        	pushl	$33
  2019e2: 50                           	pushl	%eax
  2019e3: e8 ac f9 ff ff               	calll	-1620 <_Z11ecrireOctethi>
  2019e8: 83 c4 10                     	addl	$16, %esp
  2019eb: eb 39                        	jmp	57 <_Z22i8259_disable_irq_linei+0x78>
  2019ed: 83 ec 0c                     	subl	$12, %esp
  2019f0: 68 a1 00 00 00               	pushl	$161
  2019f5: e8 c8 f9 ff ff               	calll	-1592 <_Z9lireOcteti>
  2019fa: 83 c4 10                     	addl	$16, %esp
  2019fd: 88 c2                        	movb	%al, %dl
  2019ff: 8b 45 08                     	movl	8(%ebp), %eax
  201a02: 83 e8 08                     	subl	$8, %eax
  201a05: bb 01 00 00 00               	movl	$1, %ebx
  201a0a: 88 c1                        	movb	%al, %cl
  201a0c: d3 e3                        	shll	%cl, %ebx
  201a0e: 89 d8                        	movl	%ebx, %eax
  201a10: 09 d0                        	orl	%edx, %eax
  201a12: 0f b6 c0                     	movzbl	%al, %eax
  201a15: 83 ec 08                     	subl	$8, %esp
  201a18: 68 a1 00 00 00               	pushl	$161
  201a1d: 50                           	pushl	%eax
  201a1e: e8 71 f9 ff ff               	calll	-1679 <_Z11ecrireOctethi>
  201a23: 83 c4 10                     	addl	$16, %esp
  201a26: b8 00 00 00 00               	movl	$0, %eax
  201a2b: 8b 5d fc                     	movl	-4(%ebp), %ebx
  201a2e: c9                           	leave
  201a2f: c3                           	retl

00201a30 idt_setup():
  201a30: 55                           	pushl	%ebp
  201a31: 89 e5                        	movl	%esp, %ebp
  201a33: 83 ec 18                     	subl	$24, %esp
  201a36: c7 45 f4 00 00 00 00         	movl	$0, -12(%ebp)
  201a3d: 81 7d f4 ff 00 00 00         	cmpl	$255, -12(%ebp)
  201a44: 7f 6d                        	jg	109 <_Z9idt_setupv+0x83>
  201a46: 8b 45 f4                     	movl	-12(%ebp), %eax
  201a49: c1 e0 03                     	shll	$3, %eax
  201a4c: 05 20 81 20 00               	addl	$2130208, %eax
  201a51: 89 45 f0                     	movl	%eax, -16(%ebp)
  201a54: 8b 45 f0                     	movl	-16(%ebp), %eax
  201a57: 66 c7 40 02 08 00            	movw	$8, 2(%eax)
  201a5d: 8b 45 f0                     	movl	-16(%ebp), %eax
  201a60: 8a 50 04                     	movb	4(%eax), %dl
  201a63: 83 e2 e0                     	andl	$-32, %edx
  201a66: 88 50 04                     	movb	%dl, 4(%eax)
  201a69: 8b 45 f0                     	movl	-16(%ebp), %eax
  201a6c: 8a 50 04                     	movb	4(%eax), %dl
  201a6f: 83 e2 1f                     	andl	$31, %edx
  201a72: 88 50 04                     	movb	%dl, 4(%eax)
  201a75: 8b 45 f0                     	movl	-16(%ebp), %eax
  201a78: 8a 50 05                     	movb	5(%eax), %dl
  201a7b: 83 e2 f8                     	andl	$-8, %edx
  201a7e: 83 ca 06                     	orl	$6, %edx
  201a81: 88 50 05                     	movb	%dl, 5(%eax)
  201a84: 8b 45 f0                     	movl	-16(%ebp), %eax
  201a87: 8a 50 05                     	movb	5(%eax), %dl
  201a8a: 83 ca 08                     	orl	$8, %edx
  201a8d: 88 50 05                     	movb	%dl, 5(%eax)
  201a90: 8b 45 f0                     	movl	-16(%ebp), %eax
  201a93: 8a 50 05                     	movb	5(%eax), %dl
  201a96: 83 e2 ef                     	andl	$-17, %edx
  201a99: 88 50 05                     	movb	%dl, 5(%eax)
  201a9c: 83 ec 04                     	subl	$4, %esp
  201a9f: 6a 00                        	pushl	$0
  201aa1: 6a 00                        	pushl	$0
  201aa3: ff 75 f4                     	pushl	-12(%ebp)
  201aa6: e8 21 00 00 00               	calll	33 <_Z15idt_set_handleriji>
  201aab: 83 c4 10                     	addl	$16, %esp
  201aae: ff 45 f4                     	incl	-12(%ebp)
  201ab1: eb 8a                        	jmp	-118 <_Z9idt_setupv+0xd>
  201ab3: b8 20 81 20 00               	movl	$2130208, %eax
  201ab8: 89 45 ea                     	movl	%eax, -22(%ebp)
  201abb: 66 c7 45 e8 ff 07            	movw	$2047, -24(%ebp)
  201ac1: 0f 01 5d e8                  	lidtl	-24(%ebp)
  201ac5: b8 00 00 00 00               	movl	$0, %eax
  201aca: c9                           	leave
  201acb: c3                           	retl

00201acc idt_set_handler(int, unsigned int, int):
  201acc: 55                           	pushl	%ebp
  201acd: 89 e5                        	movl	%esp, %ebp
  201acf: 83 ec 10                     	subl	$16, %esp
  201ad2: 83 7d 08 00                  	cmpl	$0, 8(%ebp)
  201ad6: 78 09                        	js	9 <_Z15idt_set_handleriji+0x15>
  201ad8: 81 7d 08 ff 00 00 00         	cmpl	$255, 8(%ebp)
  201adf: 7e 0a                        	jle	10 <_Z15idt_set_handleriji+0x1f>
  201ae1: b8 01 ff ff ff               	movl	$4294967041, %eax
  201ae6: e9 9a 00 00 00               	jmp	154 <_Z15idt_set_handleriji+0xb9>
  201aeb: 83 7d 10 00                  	cmpl	$0, 16(%ebp)
  201aef: 78 06                        	js	6 <_Z15idt_set_handleriji+0x2b>
  201af1: 83 7d 10 03                  	cmpl	$3, 16(%ebp)
  201af5: 7e 0a                        	jle	10 <_Z15idt_set_handleriji+0x35>
  201af7: b8 01 ff ff ff               	movl	$4294967041, %eax
  201afc: e9 84 00 00 00               	jmp	132 <_Z15idt_set_handleriji+0xb9>
  201b01: 8b 45 08                     	movl	8(%ebp), %eax
  201b04: c1 e0 03                     	shll	$3, %eax
  201b07: 05 20 81 20 00               	addl	$2130208, %eax
  201b0c: 89 45 fc                     	movl	%eax, -4(%ebp)
  201b0f: 83 7d 0c 00                  	cmpl	$0, 12(%ebp)
  201b13: 74 42                        	je	66 <_Z15idt_set_handleriji+0x8b>
  201b15: 8b 45 0c                     	movl	12(%ebp), %eax
  201b18: 8b 55 fc                     	movl	-4(%ebp), %edx
  201b1b: 66 89 02                     	movw	%ax, (%edx)
  201b1e: 8b 45 0c                     	movl	12(%ebp), %eax
  201b21: c1 e8 10                     	shrl	$16, %eax
  201b24: 8b 55 fc                     	movl	-4(%ebp), %edx
  201b27: 66 89 42 06                  	movw	%ax, 6(%edx)
  201b2b: 8b 45 10                     	movl	16(%ebp), %eax
  201b2e: 88 c2                        	movb	%al, %dl
  201b30: 83 e2 03                     	andl	$3, %edx
  201b33: 8b 45 fc                     	movl	-4(%ebp), %eax
  201b36: 83 e2 03                     	andl	$3, %edx
  201b39: 88 d1                        	movb	%dl, %cl
  201b3b: c1 e1 05                     	shll	$5, %ecx
  201b3e: 8a 50 05                     	movb	5(%eax), %dl
  201b41: 83 e2 9f                     	andl	$-97, %edx
  201b44: 09 ca                        	orl	%ecx, %edx
  201b46: 88 50 05                     	movb	%dl, 5(%eax)
  201b49: 8b 45 fc                     	movl	-4(%ebp), %eax
  201b4c: 8a 50 05                     	movb	5(%eax), %dl
  201b4f: 83 ca 80                     	orl	$-128, %edx
  201b52: 88 50 05                     	movb	%dl, 5(%eax)
  201b55: eb 29                        	jmp	41 <_Z15idt_set_handleriji+0xb4>
  201b57: 8b 45 fc                     	movl	-4(%ebp), %eax
  201b5a: 66 c7 00 00 00               	movw	$0, (%eax)
  201b5f: 8b 45 fc                     	movl	-4(%ebp), %eax
  201b62: 66 c7 40 06 00 00            	movw	$0, 6(%eax)
  201b68: 8b 45 fc                     	movl	-4(%ebp), %eax
  201b6b: 8a 50 05                     	movb	5(%eax), %dl
  201b6e: 83 e2 9f                     	andl	$-97, %edx
  201b71: 88 50 05                     	movb	%dl, 5(%eax)
  201b74: 8b 45 fc                     	movl	-4(%ebp), %eax
  201b77: 8a 50 05                     	movb	5(%eax), %dl
  201b7a: 83 e2 7f                     	andl	$127, %edx
  201b7d: 88 50 05                     	movb	%dl, 5(%eax)
  201b80: b8 00 00 00 00               	movl	$0, %eax
  201b85: c9                           	leave
  201b86: c3                           	retl

00201b87 idt_get_handler(int, unsigned int*, int*):
  201b87: 55                           	pushl	%ebp
  201b88: 89 e5                        	movl	%esp, %ebp
  201b8a: 83 7d 08 00                  	cmpl	$0, 8(%ebp)
  201b8e: 78 09                        	js	9 <_Z15idt_get_handleriPjPi+0x12>
  201b90: 81 7d 08 ff 00 00 00         	cmpl	$255, 8(%ebp)
  201b97: 7e 07                        	jle	7 <_Z15idt_get_handleriPjPi+0x19>
  201b99: b8 01 ff ff ff               	movl	$4294967041, %eax
  201b9e: eb 50                        	jmp	80 <_Z15idt_get_handleriPjPi+0x69>
  201ba0: 83 7d 0c 00                  	cmpl	$0, 12(%ebp)
  201ba4: 74 27                        	je	39 <_Z15idt_get_handleriPjPi+0x46>
  201ba6: 8b 45 08                     	movl	8(%ebp), %eax
  201ba9: 8b 04 c5 20 81 20 00         	movl	2130208(,%eax,8), %eax
  201bb0: 0f b7 d0                     	movzwl	%ax, %edx
  201bb3: 8b 45 08                     	movl	8(%ebp), %eax
  201bb6: 66 8b 04 c5 26 81 20 00      	movw	2130214(,%eax,8), %ax
  201bbe: 0f b7 c0                     	movzwl	%ax, %eax
  201bc1: c1 e0 10                     	shll	$16, %eax
  201bc4: 09 d0                        	orl	%edx, %eax
  201bc6: 89 c2                        	movl	%eax, %edx
  201bc8: 8b 45 0c                     	movl	12(%ebp), %eax
  201bcb: 89 10                        	movl	%edx, (%eax)
  201bcd: 83 7d 10 00                  	cmpl	$0, 16(%ebp)
  201bd1: 74 18                        	je	24 <_Z15idt_get_handleriPjPi+0x64>
  201bd3: 8b 45 08                     	movl	8(%ebp), %eax
  201bd6: 8a 04 c5 25 81 20 00         	movb	2130213(,%eax,8), %al
  201bdd: c0 e8 05                     	shrb	$5, %al
  201be0: 83 e0 03                     	andl	$3, %eax
  201be3: 0f b6 d0                     	movzbl	%al, %edx
  201be6: 8b 45 10                     	movl	16(%ebp), %eax
  201be9: 89 10                        	movl	%edx, (%eax)
  201beb: b8 00 00 00 00               	movl	$0, %eax
  201bf0: 5d                           	popl	%ebp
  201bf1: c3                           	retl

00201bf2 irq_setup():
  201bf2: 55                           	pushl	%ebp
  201bf3: 89 e5                        	movl	%esp, %ebp
  201bf5: 83 ec 08                     	subl	$8, %esp
  201bf8: e8 73 fc ff ff               	calll	-909 <_Z11i8259_setupv>
  201bfd: c9                           	leave
  201bfe: c3                           	retl

00201bff irq_set_routine(int, void (*)(int)):
  201bff: 55                           	pushl	%ebp
  201c00: 89 e5                        	movl	%esp, %ebp
  201c02: 83 ec 18                     	subl	$24, %esp
  201c05: 83 7d 08 00                  	cmpl	$0, 8(%ebp)
  201c09: 78 06                        	js	6 <_Z15irq_set_routineiPFviE+0x12>
  201c0b: 83 7d 08 0f                  	cmpl	$15, 8(%ebp)
  201c0f: 7e 0a                        	jle	10 <_Z15irq_set_routineiPFviE+0x1c>
  201c11: b8 01 ff ff ff               	movl	$4294967041, %eax
  201c16: e9 a4 00 00 00               	jmp	164 <_Z15irq_set_routineiPFviE+0xc0>
  201c1b: 9c                           	pushfl
  201c1c: 58                           	popl	%eax
  201c1d: 89 45 f0                     	movl	%eax, -16(%ebp)
  201c20: fa                           	cli
  201c21: c7 45 f4 00 00 00 00         	movl	$0, -12(%ebp)
  201c28: 8b 45 08                     	movl	8(%ebp), %eax
  201c2b: 8b 55 0c                     	movl	12(%ebp), %edx
  201c2e: 89 14 85 20 89 20 00         	movl	%edx, 2132256(,%eax,4)
  201c35: 83 7d 0c 00                  	cmpl	$0, 12(%ebp)
  201c39: 74 38                        	je	56 <_Z15irq_set_routineiPFviE+0x74>
  201c3b: 8b 45 08                     	movl	8(%ebp), %eax
  201c3e: 8b 04 85 a0 4a 20 00         	movl	2116256(,%eax,4), %eax
  201c45: 8b 55 08                     	movl	8(%ebp), %edx
  201c48: 83 c2 20                     	addl	$32, %edx
  201c4b: 83 ec 04                     	subl	$4, %esp
  201c4e: 6a 00                        	pushl	$0
  201c50: 50                           	pushl	%eax
  201c51: 52                           	pushl	%edx
  201c52: e8 75 fe ff ff               	calll	-395 <_Z15idt_set_handleriji>
  201c57: 83 c4 10                     	addl	$16, %esp
  201c5a: 89 45 f4                     	movl	%eax, -12(%ebp)
  201c5d: 83 7d f4 00                  	cmpl	$0, -12(%ebp)
  201c61: 74 29                        	je	41 <_Z15irq_set_routineiPFviE+0x8d>
  201c63: 8b 45 08                     	movl	8(%ebp), %eax
  201c66: c7 04 85 20 89 20 00 00 00 00 00     	movl	$0, 2132256(,%eax,4)
  201c71: eb 19                        	jmp	25 <_Z15irq_set_routineiPFviE+0x8d>
  201c73: 8b 45 08                     	movl	8(%ebp), %eax
  201c76: 83 c0 20                     	addl	$32, %eax
  201c79: 83 ec 04                     	subl	$4, %esp
  201c7c: 6a 00                        	pushl	$0
  201c7e: 6a 00                        	pushl	$0
  201c80: 50                           	pushl	%eax
  201c81: e8 46 fe ff ff               	calll	-442 <_Z15idt_set_handleriji>
  201c86: 83 c4 10                     	addl	$16, %esp
  201c89: 89 45 f4                     	movl	%eax, -12(%ebp)
  201c8c: 8b 45 08                     	movl	8(%ebp), %eax
  201c8f: 8b 04 85 20 89 20 00         	movl	2132256(,%eax,4), %eax
  201c96: 85 c0                        	testl	%eax, %eax
  201c98: 74 10                        	je	16 <_Z15irq_set_routineiPFviE+0xab>
  201c9a: 83 ec 0c                     	subl	$12, %esp
  201c9d: ff 75 08                     	pushl	8(%ebp)
  201ca0: e8 83 fc ff ff               	calll	-893 <_Z21i8259_enable_irq_linei>
  201ca5: 83 c4 10                     	addl	$16, %esp
  201ca8: eb 0e                        	jmp	14 <_Z15irq_set_routineiPFviE+0xb9>
  201caa: 83 ec 0c                     	subl	$12, %esp
  201cad: ff 75 08                     	pushl	8(%ebp)
  201cb0: e8 f9 fc ff ff               	calll	-775 <_Z22i8259_disable_irq_linei>
  201cb5: 83 c4 10                     	addl	$16, %esp
  201cb8: ff 75 f0                     	pushl	-16(%ebp)
  201cbb: 9d                           	popfl
  201cbc: 8b 45 f4                     	movl	-12(%ebp), %eax
  201cbf: c9                           	leave
  201cc0: c3                           	retl

00201cc1 irq_get_routine(int):
  201cc1: 55                           	pushl	%ebp
  201cc2: 89 e5                        	movl	%esp, %ebp
  201cc4: 83 7d 08 00                  	cmpl	$0, 8(%ebp)
  201cc8: 78 06                        	js	6 <_Z15irq_get_routinei+0xf>
  201cca: 83 7d 08 0f                  	cmpl	$15, 8(%ebp)
  201cce: 7e 07                        	jle	7 <_Z15irq_get_routinei+0x16>
  201cd0: b8 00 00 00 00               	movl	$0, %eax
  201cd5: eb 0a                        	jmp	10 <_Z15irq_get_routinei+0x20>
  201cd7: 8b 45 08                     	movl	8(%ebp), %eax
  201cda: 8b 04 85 20 89 20 00         	movl	2132256(,%eax,4), %eax
  201ce1: 5d                           	popl	%ebp
  201ce2: c3                           	retl
  201ce3: 90                           	nop

00201ce4 Ecran::coderCouleur(Couleur):
  201ce4: 55                           	pushl	%ebp
  201ce5: 89 e5                        	movl	%esp, %ebp
  201ce7: 83 ec 10                     	subl	$16, %esp
  201cea: 8b 45 0c                     	movl	12(%ebp), %eax
  201ced: 83 f8 0f                     	cmpl	$15, %eax
  201cf0: 77 68                        	ja	104 <_ZN5Ecran12coderCouleurE7Couleur+0x76>
  201cf2: 8b 04 85 e0 4a 20 00         	movl	2116320(,%eax,4), %eax
  201cf9: ff e0                        	jmpl	*%eax
  201cfb: c6 45 ff 00                  	movb	$0, -1(%ebp)
  201cff: eb 59                        	jmp	89 <_ZN5Ecran12coderCouleurE7Couleur+0x76>
  201d01: c6 45 ff 08                  	movb	$8, -1(%ebp)
  201d05: eb 53                        	jmp	83 <_ZN5Ecran12coderCouleurE7Couleur+0x76>
  201d07: c6 45 ff 01                  	movb	$1, -1(%ebp)
  201d0b: eb 4d                        	jmp	77 <_ZN5Ecran12coderCouleurE7Couleur+0x76>
  201d0d: c6 45 ff 09                  	movb	$9, -1(%ebp)
  201d11: eb 47                        	jmp	71 <_ZN5Ecran12coderCouleurE7Couleur+0x76>
  201d13: c6 45 ff 02                  	movb	$2, -1(%ebp)
  201d17: eb 41                        	jmp	65 <_ZN5Ecran12coderCouleurE7Couleur+0x76>
  201d19: c6 45 ff 0a                  	movb	$10, -1(%ebp)
  201d1d: eb 3b                        	jmp	59 <_ZN5Ecran12coderCouleurE7Couleur+0x76>
  201d1f: c6 45 ff 03                  	movb	$3, -1(%ebp)
  201d23: eb 35                        	jmp	53 <_ZN5Ecran12coderCouleurE7Couleur+0x76>
  201d25: c6 45 ff 0b                  	movb	$11, -1(%ebp)
  201d29: eb 2f                        	jmp	47 <_ZN5Ecran12coderCouleurE7Couleur+0x76>
  201d2b: c6 45 ff 04                  	movb	$4, -1(%ebp)
  201d2f: eb 29                        	jmp	41 <_ZN5Ecran12coderCouleurE7Couleur+0x76>
  201d31: c6 45 ff 0c                  	movb	$12, -1(%ebp)
  201d35: eb 23                        	jmp	35 <_ZN5Ecran12coderCouleurE7Couleur+0x76>
  201d37: c6 45 ff 05                  	movb	$5, -1(%ebp)
  201d3b: eb 1d                        	jmp	29 <_ZN5Ecran12coderCouleurE7Couleur+0x76>
  201d3d: c6 45 ff 0d                  	movb	$13, -1(%ebp)
  201d41: eb 17                        	jmp	23 <_ZN5Ecran12coderCouleurE7Couleur+0x76>
  201d43: c6 45 ff 06                  	movb	$6, -1(%ebp)
  201d47: eb 11                        	jmp	17 <_ZN5Ecran12coderCouleurE7Couleur+0x76>
  201d49: c6 45 ff 0e                  	movb	$14, -1(%ebp)
  201d4d: eb 0b                        	jmp	11 <_ZN5Ecran12coderCouleurE7Couleur+0x76>
  201d4f: c6 45 ff 07                  	movb	$7, -1(%ebp)
  201d53: eb 05                        	jmp	5 <_ZN5Ecran12coderCouleurE7Couleur+0x76>
  201d55: c6 45 ff 0f                  	movb	$15, -1(%ebp)
  201d59: 90                           	nop
  201d5a: 8a 45 ff                     	movb	-1(%ebp), %al
  201d5d: c9                           	leave
  201d5e: c3                           	retl
  201d5f: 90                           	nop

00201d60 Ecran::coderAttribut(Couleur, Couleur, int):
  201d60: 55                           	pushl	%ebp
  201d61: 89 e5                        	movl	%esp, %ebp
  201d63: 83 ec 10                     	subl	$16, %esp
  201d66: 83 7d 14 01                  	cmpl	$1, 20(%ebp)
  201d6a: 75 06                        	jne	6 <_ZN5Ecran13coderAttributE7CouleurS0_i+0x12>
  201d6c: c6 45 ff 01                  	movb	$1, -1(%ebp)
  201d70: eb 04                        	jmp	4 <_ZN5Ecran13coderAttributE7CouleurS0_i+0x16>
  201d72: c6 45 ff 00                  	movb	$0, -1(%ebp)
  201d76: ff 75 0c                     	pushl	12(%ebp)
  201d79: ff 75 08                     	pushl	8(%ebp)
  201d7c: e8 63 ff ff ff               	calll	-157 <_ZN5Ecran12coderCouleurE7Couleur>
  201d81: 83 c4 08                     	addl	$8, %esp
  201d84: 88 45 fe                     	movb	%al, -2(%ebp)
  201d87: ff 75 10                     	pushl	16(%ebp)
  201d8a: ff 75 08                     	pushl	8(%ebp)
  201d8d: e8 52 ff ff ff               	calll	-174 <_ZN5Ecran12coderCouleurE7Couleur>
  201d92: 83 c4 08                     	addl	$8, %esp
  201d95: 88 45 fd                     	movb	%al, -3(%ebp)
  201d98: 0f b6 45 fd                  	movzbl	-3(%ebp), %eax
  201d9c: c1 e0 04                     	shll	$4, %eax
  201d9f: 88 c2                        	movb	%al, %dl
  201da1: 8a 45 fe                     	movb	-2(%ebp), %al
  201da4: 09 c2                        	orl	%eax, %edx
  201da6: 0f b6 45 ff                  	movzbl	-1(%ebp), %eax
  201daa: c1 e0 07                     	shll	$7, %eax
  201dad: 09 d0                        	orl	%edx, %eax
  201daf: c9                           	leave
  201db0: c3                           	retl
  201db1: 90                           	nop

00201db2 Ecran::coderAttribut(Couleur, Couleur):
  201db2: 55                           	pushl	%ebp
  201db3: 89 e5                        	movl	%esp, %ebp
  201db5: 83 ec 10                     	subl	$16, %esp
  201db8: c6 45 ff 00                  	movb	$0, -1(%ebp)
  201dbc: ff 75 0c                     	pushl	12(%ebp)
  201dbf: ff 75 08                     	pushl	8(%ebp)
  201dc2: e8 1d ff ff ff               	calll	-227 <_ZN5Ecran12coderCouleurE7Couleur>
  201dc7: 83 c4 08                     	addl	$8, %esp
  201dca: 88 45 fe                     	movb	%al, -2(%ebp)
  201dcd: ff 75 10                     	pushl	16(%ebp)
  201dd0: ff 75 08                     	pushl	8(%ebp)
  201dd3: e8 0c ff ff ff               	calll	-244 <_ZN5Ecran12coderCouleurE7Couleur>
  201dd8: 83 c4 08                     	addl	$8, %esp
  201ddb: 88 45 fd                     	movb	%al, -3(%ebp)
  201dde: 0f b6 45 fd                  	movzbl	-3(%ebp), %eax
  201de2: c1 e0 04                     	shll	$4, %eax
  201de5: 88 c2                        	movb	%al, %dl
  201de7: 8a 45 fe                     	movb	-2(%ebp), %al
  201dea: 09 c2                        	orl	%eax, %edx
  201dec: 0f b6 45 ff                  	movzbl	-1(%ebp), %eax
  201df0: c1 e0 07                     	shll	$7, %eax
  201df3: 09 d0                        	orl	%edx, %eax
  201df5: c9                           	leave
  201df6: c3                           	retl
  201df7: 90                           	nop

00201df8 Ecran::getLigne():
  201df8: 55                           	pushl	%ebp
  201df9: 89 e5                        	movl	%esp, %ebp
  201dfb: 8b 45 08                     	movl	8(%ebp), %eax
  201dfe: 8b 40 04                     	movl	4(%eax), %eax
  201e01: 5d                           	popl	%ebp
  201e02: c3                           	retl
  201e03: 90                           	nop

00201e04 Ecran::getColonne():
  201e04: 55                           	pushl	%ebp
  201e05: 89 e5                        	movl	%esp, %ebp
  201e07: 8b 45 08                     	movl	8(%ebp), %eax
  201e0a: 8b 40 08                     	movl	8(%eax), %eax
  201e0d: 5d                           	popl	%ebp
  201e0e: c3                           	retl
  201e0f: 90                           	nop

00201e10 Ecran::setLigne(int):
  201e10: 55                           	pushl	%ebp
  201e11: 89 e5                        	movl	%esp, %ebp
  201e13: 8b 45 08                     	movl	8(%ebp), %eax
  201e16: 8b 55 0c                     	movl	12(%ebp), %edx
  201e19: 89 50 04                     	movl	%edx, 4(%eax)
  201e1c: 90                           	nop
  201e1d: 5d                           	popl	%ebp
  201e1e: c3                           	retl
  201e1f: 90                           	nop

00201e20 Ecran::setColonne(int):
  201e20: 55                           	pushl	%ebp
  201e21: 89 e5                        	movl	%esp, %ebp
  201e23: 8b 45 08                     	movl	8(%ebp), %eax
  201e26: 8b 55 0c                     	movl	12(%ebp), %edx
  201e29: 89 50 08                     	movl	%edx, 8(%eax)
  201e2c: 90                           	nop
  201e2d: 5d                           	popl	%ebp
  201e2e: c3                           	retl
  201e2f: 90                           	nop

00201e30 Ecran::positionCourrante():
  201e30: 55                           	pushl	%ebp
  201e31: 89 e5                        	movl	%esp, %ebp
  201e33: 53                           	pushl	%ebx
  201e34: ff 75 08                     	pushl	8(%ebp)
  201e37: e8 bc ff ff ff               	calll	-68 <_ZN5Ecran8getLigneEv>
  201e3c: 83 c4 04                     	addl	$4, %esp
  201e3f: 89 c2                        	movl	%eax, %edx
  201e41: 89 d0                        	movl	%edx, %eax
  201e43: c1 e0 02                     	shll	$2, %eax
  201e46: 01 d0                        	addl	%edx, %eax
  201e48: c1 e0 04                     	shll	$4, %eax
  201e4b: 89 c3                        	movl	%eax, %ebx
  201e4d: ff 75 08                     	pushl	8(%ebp)
  201e50: e8 af ff ff ff               	calll	-81 <_ZN5Ecran10getColonneEv>
  201e55: 83 c4 04                     	addl	$4, %esp
  201e58: 01 d8                        	addl	%ebx, %eax
  201e5a: 8b 5d fc                     	movl	-4(%ebp), %ebx
  201e5d: c9                           	leave
  201e5e: c3                           	retl
  201e5f: 90                           	nop

00201e60 Ecran::avancerPositionCourrante():
  201e60: 55                           	pushl	%ebp
  201e61: 89 e5                        	movl	%esp, %ebp
  201e63: 83 ec 18                     	subl	$24, %esp
  201e66: ff 75 08                     	pushl	8(%ebp)
  201e69: e8 96 ff ff ff               	calll	-106 <_ZN5Ecran10getColonneEv>
  201e6e: 83 c4 04                     	addl	$4, %esp
  201e71: 89 45 f4                     	movl	%eax, -12(%ebp)
  201e74: ff 75 08                     	pushl	8(%ebp)
  201e77: e8 7c ff ff ff               	calll	-132 <_ZN5Ecran8getLigneEv>
  201e7c: 83 c4 04                     	addl	$4, %esp
  201e7f: 89 45 f0                     	movl	%eax, -16(%ebp)
  201e82: ff 45 f4                     	incl	-12(%ebp)
  201e85: 83 7d f4 4f                  	cmpl	$79, -12(%ebp)
  201e89: 7e 23                        	jle	35 <_ZN5Ecran24avancerPositionCourranteEv+0x4e>
  201e8b: c7 45 f4 00 00 00 00         	movl	$0, -12(%ebp)
  201e92: ff 45 f0                     	incl	-16(%ebp)
  201e95: 83 7d f0 18                  	cmpl	$24, -16(%ebp)
  201e99: 7e 13                        	jle	19 <_ZN5Ecran24avancerPositionCourranteEv+0x4e>
  201e9b: 83 ec 08                     	subl	$8, %esp
  201e9e: 6a 01                        	pushl	$1
  201ea0: ff 75 08                     	pushl	8(%ebp)
  201ea3: e8 ca 02 00 00               	calll	714 <_ZN5Ecran10defilementEi>
  201ea8: 83 c4 10                     	addl	$16, %esp
  201eab: ff 4d f0                     	decl	-16(%ebp)
  201eae: 83 ec 08                     	subl	$8, %esp
  201eb1: ff 75 f4                     	pushl	-12(%ebp)
  201eb4: ff 75 08                     	pushl	8(%ebp)
  201eb7: e8 64 ff ff ff               	calll	-156 <_ZN5Ecran10setColonneEi>
  201ebc: 83 c4 10                     	addl	$16, %esp
  201ebf: 83 ec 08                     	subl	$8, %esp
  201ec2: ff 75 f0                     	pushl	-16(%ebp)
  201ec5: ff 75 08                     	pushl	8(%ebp)
  201ec8: e8 43 ff ff ff               	calll	-189 <_ZN5Ecran8setLigneEi>
  201ecd: 83 c4 10                     	addl	$16, %esp
  201ed0: 90                           	nop
  201ed1: c9                           	leave
  201ed2: c3                           	retl
  201ed3: 90                           	nop

00201ed4 Ecran::sautDeLigne():
  201ed4: 55                           	pushl	%ebp
  201ed5: 89 e5                        	movl	%esp, %ebp
  201ed7: 83 ec 18                     	subl	$24, %esp
  201eda: ff 75 08                     	pushl	8(%ebp)
  201edd: e8 22 ff ff ff               	calll	-222 <_ZN5Ecran10getColonneEv>
  201ee2: 83 c4 04                     	addl	$4, %esp
  201ee5: 89 45 f0                     	movl	%eax, -16(%ebp)
  201ee8: ff 75 08                     	pushl	8(%ebp)
  201eeb: e8 08 ff ff ff               	calll	-248 <_ZN5Ecran8getLigneEv>
  201ef0: 83 c4 04                     	addl	$4, %esp
  201ef3: 89 45 f4                     	movl	%eax, -12(%ebp)
  201ef6: c7 45 f0 00 00 00 00         	movl	$0, -16(%ebp)
  201efd: ff 45 f4                     	incl	-12(%ebp)
  201f00: 83 7d f4 18                  	cmpl	$24, -12(%ebp)
  201f04: 7e 13                        	jle	19 <_ZN5Ecran11sautDeLigneEv+0x45>
  201f06: 83 ec 08                     	subl	$8, %esp
  201f09: 6a 01                        	pushl	$1
  201f0b: ff 75 08                     	pushl	8(%ebp)
  201f0e: e8 5f 02 00 00               	calll	607 <_ZN5Ecran10defilementEi>
  201f13: 83 c4 10                     	addl	$16, %esp
  201f16: ff 4d f4                     	decl	-12(%ebp)
  201f19: 83 ec 08                     	subl	$8, %esp
  201f1c: ff 75 f0                     	pushl	-16(%ebp)
  201f1f: ff 75 08                     	pushl	8(%ebp)
  201f22: e8 f9 fe ff ff               	calll	-263 <_ZN5Ecran10setColonneEi>
  201f27: 83 c4 10                     	addl	$16, %esp
  201f2a: 83 ec 08                     	subl	$8, %esp
  201f2d: ff 75 f4                     	pushl	-12(%ebp)
  201f30: ff 75 08                     	pushl	8(%ebp)
  201f33: e8 d8 fe ff ff               	calll	-296 <_ZN5Ecran8setLigneEi>
  201f38: 83 c4 10                     	addl	$16, %esp
  201f3b: 90                           	nop
  201f3c: c9                           	leave
  201f3d: c3                           	retl

00201f3e Ecran::effacerEcran(Couleur):
  201f3e: 55                           	pushl	%ebp
  201f3f: 89 e5                        	movl	%esp, %ebp
  201f41: 83 ec 10                     	subl	$16, %esp
  201f44: 8b 45 08                     	movl	8(%ebp), %eax
  201f47: 8b 55 0c                     	movl	12(%ebp), %edx
  201f4a: 89 10                        	movl	%edx, (%eax)
  201f4c: 8b 45 08                     	movl	8(%ebp), %eax
  201f4f: 8b 10                        	movl	(%eax), %edx
  201f51: 8b 45 08                     	movl	8(%ebp), %eax
  201f54: 8b 00                        	movl	(%eax), %eax
  201f56: 52                           	pushl	%edx
  201f57: 50                           	pushl	%eax
  201f58: ff 75 08                     	pushl	8(%ebp)
  201f5b: e8 52 fe ff ff               	calll	-430 <_ZN5Ecran13coderAttributE7CouleurS0_>
  201f60: 83 c4 0c                     	addl	$12, %esp
  201f63: 88 45 fb                     	movb	%al, -5(%ebp)
  201f66: c7 45 fc 00 00 00 00         	movl	$0, -4(%ebp)
  201f6d: 81 7d fc cf 07 00 00         	cmpl	$1999, -4(%ebp)
  201f74: 7f 42                        	jg	66 <_ZN5Ecran12effacerEcranE7Couleur+0x7a>
  201f76: 8b 15 a0 49 20 00            	movl	2116000, %edx
  201f7c: 8b 45 fc                     	movl	-4(%ebp), %eax
  201f7f: 01 c0                        	addl	%eax, %eax
  201f81: 01 d0                        	addl	%edx, %eax
  201f83: c6 00 00                     	movb	$0, (%eax)
  201f86: 8b 15 a0 49 20 00            	movl	2116000, %edx
  201f8c: 8b 45 fc                     	movl	-4(%ebp), %eax
  201f8f: 01 c0                        	addl	%eax, %eax
  201f91: 01 c2                        	addl	%eax, %edx
  201f93: 8a 45 fb                     	movb	-5(%ebp), %al
  201f96: 88 42 01                     	movb	%al, 1(%edx)
  201f99: 6a 00                        	pushl	$0
  201f9b: ff 75 08                     	pushl	8(%ebp)
  201f9e: e8 6d fe ff ff               	calll	-403 <_ZN5Ecran8setLigneEi>
  201fa3: 83 c4 08                     	addl	$8, %esp
  201fa6: 6a 00                        	pushl	$0
  201fa8: ff 75 08                     	pushl	8(%ebp)
  201fab: e8 70 fe ff ff               	calll	-400 <_ZN5Ecran10setColonneEi>
  201fb0: 83 c4 08                     	addl	$8, %esp
  201fb3: ff 45 fc                     	incl	-4(%ebp)
  201fb6: eb b5                        	jmp	-75 <_ZN5Ecran12effacerEcranE7Couleur+0x2f>
  201fb8: 90                           	nop
  201fb9: c9                           	leave
  201fba: c3                           	retl
  201fbb: 90                           	nop

00201fbc Ecran::afficherCaractere(Couleur, Couleur, char):
  201fbc: 55                           	pushl	%ebp
  201fbd: 89 e5                        	movl	%esp, %ebp
  201fbf: 56                           	pushl	%esi
  201fc0: 53                           	pushl	%ebx
  201fc1: 83 ec 10                     	subl	$16, %esp
  201fc4: 8b 45 14                     	movl	20(%ebp), %eax
  201fc7: 88 45 f4                     	movb	%al, -12(%ebp)
  201fca: 0f be 75 f4                  	movsbl	-12(%ebp), %esi
  201fce: ff 75 08                     	pushl	8(%ebp)
  201fd1: e8 2e fe ff ff               	calll	-466 <_ZN5Ecran10getColonneEv>
  201fd6: 83 c4 04                     	addl	$4, %esp
  201fd9: 89 c3                        	movl	%eax, %ebx
  201fdb: ff 75 08                     	pushl	8(%ebp)
  201fde: e8 15 fe ff ff               	calll	-491 <_ZN5Ecran8getLigneEv>
  201fe3: 83 c4 04                     	addl	$4, %esp
  201fe6: 83 ec 08                     	subl	$8, %esp
  201fe9: 56                           	pushl	%esi
  201fea: ff 75 10                     	pushl	16(%ebp)
  201fed: ff 75 0c                     	pushl	12(%ebp)
  201ff0: 53                           	pushl	%ebx
  201ff1: 50                           	pushl	%eax
  201ff2: ff 75 08                     	pushl	8(%ebp)
  201ff5: e8 1a 00 00 00               	calll	26 <_ZN5Ecran17afficherCaractereEii7CouleurS0_c>
  201ffa: 83 c4 20                     	addl	$32, %esp
  201ffd: 83 ec 0c                     	subl	$12, %esp
  202000: ff 75 08                     	pushl	8(%ebp)
  202003: e8 58 fe ff ff               	calll	-424 <_ZN5Ecran24avancerPositionCourranteEv>
  202008: 83 c4 10                     	addl	$16, %esp
  20200b: 90                           	nop
  20200c: 8d 65 f8                     	leal	-8(%ebp), %esp
  20200f: 5b                           	popl	%ebx
  202010: 5e                           	popl	%esi
  202011: 5d                           	popl	%ebp
  202012: c3                           	retl
  202013: 90                           	nop

00202014 Ecran::afficherCaractere(int, int, Couleur, Couleur, char):
  202014: 55                           	pushl	%ebp
  202015: 89 e5                        	movl	%esp, %ebp
  202017: 83 ec 14                     	subl	$20, %esp
  20201a: 8b 45 1c                     	movl	28(%ebp), %eax
  20201d: 88 45 ec                     	movb	%al, -20(%ebp)
  202020: ff 75 18                     	pushl	24(%ebp)
  202023: ff 75 14                     	pushl	20(%ebp)
  202026: ff 75 08                     	pushl	8(%ebp)
  202029: e8 84 fd ff ff               	calll	-636 <_ZN5Ecran13coderAttributE7CouleurS0_>
  20202e: 83 c4 0c                     	addl	$12, %esp
  202031: 88 45 ff                     	movb	%al, -1(%ebp)
  202034: 83 7d 10 4f                  	cmpl	$79, 16(%ebp)
  202038: 7f 44                        	jg	68 <_ZN5Ecran17afficherCaractereEii7CouleurS0_c+0x6a>
  20203a: 83 7d 0c 18                  	cmpl	$24, 12(%ebp)
  20203e: 7f 3e                        	jg	62 <_ZN5Ecran17afficherCaractereEii7CouleurS0_c+0x6a>
  202040: 8b 55 0c                     	movl	12(%ebp), %edx
  202043: 89 d0                        	movl	%edx, %eax
  202045: c1 e0 02                     	shll	$2, %eax
  202048: 01 d0                        	addl	%edx, %eax
  20204a: c1 e0 04                     	shll	$4, %eax
  20204d: 89 c2                        	movl	%eax, %edx
  20204f: 8b 45 10                     	movl	16(%ebp), %eax
  202052: 01 d0                        	addl	%edx, %eax
  202054: 89 45 f8                     	movl	%eax, -8(%ebp)
  202057: 8b 15 a0 49 20 00            	movl	2116000, %edx
  20205d: 8b 45 f8                     	movl	-8(%ebp), %eax
  202060: 01 c0                        	addl	%eax, %eax
  202062: 01 c2                        	addl	%eax, %edx
  202064: 8a 45 ec                     	movb	-20(%ebp), %al
  202067: 88 02                        	movb	%al, (%edx)
  202069: 8b 15 a0 49 20 00            	movl	2116000, %edx
  20206f: 8b 45 f8                     	movl	-8(%ebp), %eax
  202072: 01 c0                        	addl	%eax, %eax
  202074: 01 c2                        	addl	%eax, %edx
  202076: 8a 45 ff                     	movb	-1(%ebp), %al
  202079: 88 42 01                     	movb	%al, 1(%edx)
  20207c: eb 01                        	jmp	1 <_ZN5Ecran17afficherCaractereEii7CouleurS0_c+0x6b>
  20207e: 90                           	nop
  20207f: c9                           	leave
  202080: c3                           	retl
  202081: 90                           	nop

00202082 Ecran::afficherMot(int, int, char const*, Couleur):
  202082: 55                           	pushl	%ebp
  202083: 89 e5                        	movl	%esp, %ebp
  202085: 83 ec 08                     	subl	$8, %esp
  202088: ff 75 0c                     	pushl	12(%ebp)
  20208b: ff 75 08                     	pushl	8(%ebp)
  20208e: e8 7d fd ff ff               	calll	-643 <_ZN5Ecran8setLigneEi>
  202093: 83 c4 08                     	addl	$8, %esp
  202096: ff 75 10                     	pushl	16(%ebp)
  202099: ff 75 08                     	pushl	8(%ebp)
  20209c: e8 7f fd ff ff               	calll	-641 <_ZN5Ecran10setColonneEi>
  2020a1: 83 c4 08                     	addl	$8, %esp
  2020a4: 83 ec 04                     	subl	$4, %esp
  2020a7: ff 75 18                     	pushl	24(%ebp)
  2020aa: ff 75 14                     	pushl	20(%ebp)
  2020ad: ff 75 08                     	pushl	8(%ebp)
  2020b0: e8 07 00 00 00               	calll	7 <_ZN5Ecran11afficherMotEPKc7Couleur>
  2020b5: 83 c4 10                     	addl	$16, %esp
  2020b8: 90                           	nop
  2020b9: c9                           	leave
  2020ba: c3                           	retl
  2020bb: 90                           	nop

002020bc Ecran::afficherMot(char const*, Couleur):
  2020bc: 55                           	pushl	%ebp
  2020bd: 89 e5                        	movl	%esp, %ebp
  2020bf: 83 ec 18                     	subl	$24, %esp
  2020c2: c7 45 f4 00 00 00 00         	movl	$0, -12(%ebp)
  2020c9: 8b 55 f4                     	movl	-12(%ebp), %edx
  2020cc: 8b 45 0c                     	movl	12(%ebp), %eax
  2020cf: 01 d0                        	addl	%edx, %eax
  2020d1: 8a 00                        	movb	(%eax), %al
  2020d3: 84 c0                        	testb	%al, %al
  2020d5: 74 45                        	je	69 <_ZN5Ecran11afficherMotEPKc7Couleur+0x60>
  2020d7: 8b 55 f4                     	movl	-12(%ebp), %edx
  2020da: 8b 45 0c                     	movl	12(%ebp), %eax
  2020dd: 01 d0                        	addl	%edx, %eax
  2020df: 8a 00                        	movb	(%eax), %al
  2020e1: 3c 0a                        	cmpb	$10, %al
  2020e3: 75 10                        	jne	16 <_ZN5Ecran11afficherMotEPKc7Couleur+0x39>
  2020e5: 83 ec 0c                     	subl	$12, %esp
  2020e8: ff 75 08                     	pushl	8(%ebp)
  2020eb: e8 e4 fd ff ff               	calll	-540 <_ZN5Ecran11sautDeLigneEv>
  2020f0: 83 c4 10                     	addl	$16, %esp
  2020f3: eb 22                        	jmp	34 <_ZN5Ecran11afficherMotEPKc7Couleur+0x5b>
  2020f5: 8b 55 f4                     	movl	-12(%ebp), %edx
  2020f8: 8b 45 0c                     	movl	12(%ebp), %eax
  2020fb: 01 d0                        	addl	%edx, %eax
  2020fd: 8a 00                        	movb	(%eax), %al
  2020ff: 0f be d0                     	movsbl	%al, %edx
  202102: 8b 45 08                     	movl	8(%ebp), %eax
  202105: 8b 00                        	movl	(%eax), %eax
  202107: 52                           	pushl	%edx
  202108: 50                           	pushl	%eax
  202109: ff 75 10                     	pushl	16(%ebp)
  20210c: ff 75 08                     	pushl	8(%ebp)
  20210f: e8 a8 fe ff ff               	calll	-344 <_ZN5Ecran17afficherCaractereE7CouleurS0_c>
  202114: 83 c4 10                     	addl	$16, %esp
  202117: ff 45 f4                     	incl	-12(%ebp)
  20211a: eb ad                        	jmp	-83 <_ZN5Ecran11afficherMotEPKc7Couleur+0xd>
  20211c: 90                           	nop
  20211d: c9                           	leave
  20211e: c3                           	retl
  20211f: 90                           	nop

00202120 Ecran::afficherCurseur():
  202120: 55                           	pushl	%ebp
  202121: 89 e5                        	movl	%esp, %ebp
  202123: 83 ec 10                     	subl	$16, %esp
  202126: ff 75 08                     	pushl	8(%ebp)
  202129: e8 02 fd ff ff               	calll	-766 <_ZN5Ecran17positionCourranteEv>
  20212e: 83 c4 04                     	addl	$4, %esp
  202131: 89 45 fc                     	movl	%eax, -4(%ebp)
  202134: 8b 45 08                     	movl	8(%ebp), %eax
  202137: 8b 00                        	movl	(%eax), %eax
  202139: 6a 01                        	pushl	$1
  20213b: 50                           	pushl	%eax
  20213c: 6a 0f                        	pushl	$15
  20213e: ff 75 08                     	pushl	8(%ebp)
  202141: e8 1a fc ff ff               	calll	-998 <_ZN5Ecran13coderAttributE7CouleurS0_i>
  202146: 83 c4 10                     	addl	$16, %esp
  202149: 88 45 fb                     	movb	%al, -5(%ebp)
  20214c: 8b 15 a0 49 20 00            	movl	2116000, %edx
  202152: 8b 45 fc                     	movl	-4(%ebp), %eax
  202155: 01 c0                        	addl	%eax, %eax
  202157: 01 d0                        	addl	%edx, %eax
  202159: c6 00 3e                     	movb	$62, (%eax)
  20215c: 8b 15 a0 49 20 00            	movl	2116000, %edx
  202162: 8b 45 fc                     	movl	-4(%ebp), %eax
  202165: 01 c0                        	addl	%eax, %eax
  202167: 01 c2                        	addl	%eax, %edx
  202169: 8a 45 fb                     	movb	-5(%ebp), %al
  20216c: 88 42 01                     	movb	%al, 1(%edx)
  20216f: 90                           	nop
  202170: c9                           	leave
  202171: c3                           	retl

00202172 Ecran::defilement(int):
  202172: 55                           	pushl	%ebp
  202173: 89 e5                        	movl	%esp, %ebp
  202175: 53                           	pushl	%ebx
  202176: 83 ec 10                     	subl	$16, %esp
  202179: c7 45 f8 00 00 00 00         	movl	$0, -8(%ebp)
  202180: 83 7d f8 18                  	cmpl	$24, -8(%ebp)
  202184: 0f 8f 0d 01 00 00            	jg	269 <_ZN5Ecran10defilementEi+0x125>
  20218a: c7 45 f4 00 00 00 00         	movl	$0, -12(%ebp)
  202191: 83 7d f4 4f                  	cmpl	$79, -12(%ebp)
  202195: 0f 8f f4 00 00 00            	jg	244 <_ZN5Ecran10defilementEi+0x11d>
  20219b: 8b 55 f8                     	movl	-8(%ebp), %edx
  20219e: 8b 45 0c                     	movl	12(%ebp), %eax
  2021a1: 01 d0                        	addl	%edx, %eax
  2021a3: 83 f8 18                     	cmpl	$24, %eax
  2021a6: 0f 8f 92 00 00 00            	jg	146 <_ZN5Ecran10defilementEi+0xcc>
  2021ac: 8b 15 a0 49 20 00            	movl	2116000, %edx
  2021b2: 8b 4d f8                     	movl	-8(%ebp), %ecx
  2021b5: 8b 45 0c                     	movl	12(%ebp), %eax
  2021b8: 01 c1                        	addl	%eax, %ecx
  2021ba: 89 c8                        	movl	%ecx, %eax
  2021bc: c1 e0 02                     	shll	$2, %eax
  2021bf: 01 c8                        	addl	%ecx, %eax
  2021c1: c1 e0 04                     	shll	$4, %eax
  2021c4: 89 c1                        	movl	%eax, %ecx
  2021c6: 8b 45 f4                     	movl	-12(%ebp), %eax
  2021c9: 01 c8                        	addl	%ecx, %eax
  2021cb: 01 c0                        	addl	%eax, %eax
  2021cd: 8d 0c 02                     	leal	(%edx,%eax), %ecx
  2021d0: 8b 1d a0 49 20 00            	movl	2116000, %ebx
  2021d6: 8b 55 f8                     	movl	-8(%ebp), %edx
  2021d9: 89 d0                        	movl	%edx, %eax
  2021db: c1 e0 02                     	shll	$2, %eax
  2021de: 01 d0                        	addl	%edx, %eax
  2021e0: c1 e0 04                     	shll	$4, %eax
  2021e3: 89 c2                        	movl	%eax, %edx
  2021e5: 8b 45 f4                     	movl	-12(%ebp), %eax
  2021e8: 01 d0                        	addl	%edx, %eax
  2021ea: 01 c0                        	addl	%eax, %eax
  2021ec: 8d 14 03                     	leal	(%ebx,%eax), %edx
  2021ef: 8a 01                        	movb	(%ecx), %al
  2021f1: 88 02                        	movb	%al, (%edx)
  2021f3: 8b 15 a0 49 20 00            	movl	2116000, %edx
  2021f9: 8b 4d f8                     	movl	-8(%ebp), %ecx
  2021fc: 8b 45 0c                     	movl	12(%ebp), %eax
  2021ff: 01 c1                        	addl	%eax, %ecx
  202201: 89 c8                        	movl	%ecx, %eax
  202203: c1 e0 02                     	shll	$2, %eax
  202206: 01 c8                        	addl	%ecx, %eax
  202208: c1 e0 04                     	shll	$4, %eax
  20220b: 89 c1                        	movl	%eax, %ecx
  20220d: 8b 45 f4                     	movl	-12(%ebp), %eax
  202210: 01 c8                        	addl	%ecx, %eax
  202212: 01 c0                        	addl	%eax, %eax
  202214: 8d 0c 02                     	leal	(%edx,%eax), %ecx
  202217: 8b 1d a0 49 20 00            	movl	2116000, %ebx
  20221d: 8b 55 f8                     	movl	-8(%ebp), %edx
  202220: 89 d0                        	movl	%edx, %eax
  202222: c1 e0 02                     	shll	$2, %eax
  202225: 01 d0                        	addl	%edx, %eax
  202227: c1 e0 04                     	shll	$4, %eax
  20222a: 89 c2                        	movl	%eax, %edx
  20222c: 8b 45 f4                     	movl	-12(%ebp), %eax
  20222f: 01 d0                        	addl	%edx, %eax
  202231: 01 c0                        	addl	%eax, %eax
  202233: 8d 14 03                     	leal	(%ebx,%eax), %edx
  202236: 8a 41 01                     	movb	1(%ecx), %al
  202239: 88 42 01                     	movb	%al, 1(%edx)
  20223c: eb 49                        	jmp	73 <_ZN5Ecran10defilementEi+0x115>
  20223e: 8b 0d a0 49 20 00            	movl	2116000, %ecx
  202244: 8b 55 f8                     	movl	-8(%ebp), %edx
  202247: 89 d0                        	movl	%edx, %eax
  202249: c1 e0 02                     	shll	$2, %eax
  20224c: 01 d0                        	addl	%edx, %eax
  20224e: c1 e0 04                     	shll	$4, %eax
  202251: 89 c2                        	movl	%eax, %edx
  202253: 8b 45 f4                     	movl	-12(%ebp), %eax
  202256: 01 d0                        	addl	%edx, %eax
  202258: 01 c0                        	addl	%eax, %eax
  20225a: 01 c8                        	addl	%ecx, %eax
  20225c: c6 00 00                     	movb	$0, (%eax)
  20225f: 8b 45 08                     	movl	8(%ebp), %eax
  202262: 8b 08                        	movl	(%eax), %ecx
  202264: 8b 1d a0 49 20 00            	movl	2116000, %ebx
  20226a: 8b 55 f8                     	movl	-8(%ebp), %edx
  20226d: 89 d0                        	movl	%edx, %eax
  20226f: c1 e0 02                     	shll	$2, %eax
  202272: 01 d0                        	addl	%edx, %eax
  202274: c1 e0 04                     	shll	$4, %eax
  202277: 89 c2                        	movl	%eax, %edx
  202279: 8b 45 f4                     	movl	-12(%ebp), %eax
  20227c: 01 d0                        	addl	%edx, %eax
  20227e: 01 c0                        	addl	%eax, %eax
  202280: 01 d8                        	addl	%ebx, %eax
  202282: 88 ca                        	movb	%cl, %dl
  202284: 88 50 01                     	movb	%dl, 1(%eax)
  202287: ff 45 f4                     	incl	-12(%ebp)
  20228a: e9 02 ff ff ff               	jmp	-254 <_ZN5Ecran10defilementEi+0x1f>
  20228f: ff 45 f8                     	incl	-8(%ebp)
  202292: e9 e9 fe ff ff               	jmp	-279 <_ZN5Ecran10defilementEi+0xe>
  202297: 90                           	nop
  202298: 83 c4 10                     	addl	$16, %esp
  20229b: 5b                           	popl	%ebx
  20229c: 5d                           	popl	%ebp
  20229d: c3                           	retl

0020229e Ecran::afficherChiffre(int, int, int):
  20229e: 55                           	pushl	%ebp
  20229f: 89 e5                        	movl	%esp, %ebp
  2022a1: 83 ec 68                     	subl	$104, %esp
  2022a4: c7 45 ec 00 00 00 00         	movl	$0, -20(%ebp)
  2022ab: 8b 45 14                     	movl	20(%ebp), %eax
  2022ae: 89 45 e8                     	movl	%eax, -24(%ebp)
  2022b1: 83 7d e8 00                  	cmpl	$0, -24(%ebp)
  2022b5: 79 03                        	jns	3 <_ZN5Ecran15afficherChiffreEiii+0x1c>
  2022b7: f7 5d e8                     	negl	-24(%ebp)
  2022ba: c6 45 98 30                  	movb	$48, -104(%ebp)
  2022be: 83 7d e8 00                  	cmpl	$0, -24(%ebp)
  2022c2: 75 03                        	jne	3 <_ZN5Ecran15afficherChiffreEiii+0x29>
  2022c4: ff 45 ec                     	incl	-20(%ebp)
  2022c7: 83 7d e8 00                  	cmpl	$0, -24(%ebp)
  2022cb: 74 40                        	je	64 <_ZN5Ecran15afficherChiffreEiii+0x6f>
  2022cd: 8b 45 e8                     	movl	-24(%ebp), %eax
  2022d0: b9 0a 00 00 00               	movl	$10, %ecx
  2022d5: 99                           	cltd
  2022d6: f7 f9                        	idivl	%ecx
  2022d8: 89 55 e4                     	movl	%edx, -28(%ebp)
  2022db: 8b 4d e8                     	movl	-24(%ebp), %ecx
  2022de: b8 67 66 66 66               	movl	$1717986919, %eax
  2022e3: f7 e9                        	imull	%ecx
  2022e5: c1 fa 02                     	sarl	$2, %edx
  2022e8: 89 c8                        	movl	%ecx, %eax
  2022ea: c1 f8 1f                     	sarl	$31, %eax
  2022ed: 29 c2                        	subl	%eax, %edx
  2022ef: 89 d0                        	movl	%edx, %eax
  2022f1: 89 45 e8                     	movl	%eax, -24(%ebp)
  2022f4: 8b 45 e4                     	movl	-28(%ebp), %eax
  2022f7: 05 20 4b 20 00               	addl	$2116384, %eax
  2022fc: 8a 00                        	movb	(%eax), %al
  2022fe: 8d 4d 98                     	leal	-104(%ebp), %ecx
  202301: 8b 55 ec                     	movl	-20(%ebp), %edx
  202304: 01 ca                        	addl	%ecx, %edx
  202306: 88 02                        	movb	%al, (%edx)
  202308: ff 45 ec                     	incl	-20(%ebp)
  20230b: eb ba                        	jmp	-70 <_ZN5Ecran15afficherChiffreEiii+0x29>
  20230d: 83 7d 14 00                  	cmpl	$0, 20(%ebp)
  202311: 79 0e                        	jns	14 <_ZN5Ecran15afficherChiffreEiii+0x83>
  202313: 8d 55 98                     	leal	-104(%ebp), %edx
  202316: 8b 45 ec                     	movl	-20(%ebp), %eax
  202319: 01 d0                        	addl	%edx, %eax
  20231b: c6 00 2d                     	movb	$45, (%eax)
  20231e: ff 45 ec                     	incl	-20(%ebp)
  202321: c7 45 f4 00 00 00 00         	movl	$0, -12(%ebp)
  202328: 8b 45 ec                     	movl	-20(%ebp), %eax
  20232b: 48                           	decl	%eax
  20232c: 89 45 f0                     	movl	%eax, -16(%ebp)
  20232f: 8b 45 f4                     	movl	-12(%ebp), %eax
  202332: 3b 45 ec                     	cmpl	-20(%ebp), %eax
  202335: 7d 1c                        	jge	28 <_ZN5Ecran15afficherChiffreEiii+0xb5>
  202337: 8d 55 98                     	leal	-104(%ebp), %edx
  20233a: 8b 45 f4                     	movl	-12(%ebp), %eax
  20233d: 01 d0                        	addl	%edx, %eax
  20233f: 8a 00                        	movb	(%eax), %al
  202341: 8d 4d bc                     	leal	-68(%ebp), %ecx
  202344: 8b 55 f0                     	movl	-16(%ebp), %edx
  202347: 01 ca                        	addl	%ecx, %edx
  202349: 88 02                        	movb	%al, (%edx)
  20234b: ff 45 f4                     	incl	-12(%ebp)
  20234e: ff 4d f0                     	decl	-16(%ebp)
  202351: eb dc                        	jmp	-36 <_ZN5Ecran15afficherChiffreEiii+0x91>
  202353: 8d 55 bc                     	leal	-68(%ebp), %edx
  202356: 8b 45 ec                     	movl	-20(%ebp), %eax
  202359: 01 d0                        	addl	%edx, %eax
  20235b: c6 00 00                     	movb	$0, (%eax)
  20235e: 83 ec 0c                     	subl	$12, %esp
  202361: 6a 0f                        	pushl	$15
  202363: 8d 45 bc                     	leal	-68(%ebp), %eax
  202366: 50                           	pushl	%eax
  202367: ff 75 10                     	pushl	16(%ebp)
  20236a: ff 75 0c                     	pushl	12(%ebp)
  20236d: ff 75 08                     	pushl	8(%ebp)
  202370: e8 0d fd ff ff               	calll	-755 <_ZN5Ecran11afficherMotEiiPKc7Couleur>
  202375: 83 c4 20                     	addl	$32, %esp
  202378: 90                           	nop
  202379: c9                           	leave
  20237a: c3                           	retl
  20237b: 90                           	nop

0020237c Ecran::afficherChiffre(int):
  20237c: 55                           	pushl	%ebp
  20237d: 89 e5                        	movl	%esp, %ebp
  20237f: 53                           	pushl	%ebx
  202380: 83 ec 04                     	subl	$4, %esp
  202383: ff 75 08                     	pushl	8(%ebp)
  202386: e8 79 fa ff ff               	calll	-1415 <_ZN5Ecran10getColonneEv>
  20238b: 83 c4 04                     	addl	$4, %esp
  20238e: 89 c3                        	movl	%eax, %ebx
  202390: ff 75 08                     	pushl	8(%ebp)
  202393: e8 60 fa ff ff               	calll	-1440 <_ZN5Ecran8getLigneEv>
  202398: 83 c4 04                     	addl	$4, %esp
  20239b: ff 75 0c                     	pushl	12(%ebp)
  20239e: 53                           	pushl	%ebx
  20239f: 50                           	pushl	%eax
  2023a0: ff 75 08                     	pushl	8(%ebp)
  2023a3: e8 f6 fe ff ff               	calll	-266 <_ZN5Ecran15afficherChiffreEiii>
  2023a8: 83 c4 10                     	addl	$16, %esp
  2023ab: 90                           	nop
  2023ac: 8b 5d fc                     	movl	-4(%ebp), %ebx
  2023af: c9                           	leave
  2023b0: c3                           	retl
  2023b1: 90                           	nop

002023b2 Ecran::afficherBase(unsigned int, int, Couleur):
  2023b2: 55                           	pushl	%ebp
  2023b3: 89 e5                        	movl	%esp, %ebp
  2023b5: 83 ec 48                     	subl	$72, %esp
  2023b8: 83 7d 0c 00                  	cmpl	$0, 12(%ebp)
  2023bc: 75 25                        	jne	37 <_ZN5Ecran12afficherBaseEji7Couleur+0x31>
  2023be: 8b 45 08                     	movl	8(%ebp), %eax
  2023c1: 8b 50 08                     	movl	8(%eax), %edx
  2023c4: 8b 45 08                     	movl	8(%ebp), %eax
  2023c7: 8b 40 04                     	movl	4(%eax), %eax
  2023ca: 6a 30                        	pushl	$48
  2023cc: 6a 00                        	pushl	$0
  2023ce: ff 75 14                     	pushl	20(%ebp)
  2023d1: 52                           	pushl	%edx
  2023d2: 50                           	pushl	%eax
  2023d3: ff 75 08                     	pushl	8(%ebp)
  2023d6: e8 39 fc ff ff               	calll	-967 <_ZN5Ecran17afficherCaractereEii7CouleurS0_c>
  2023db: 83 c4 18                     	addl	$24, %esp
  2023de: e9 2f 02 00 00               	jmp	559 <_ZN5Ecran12afficherBaseEji7Couleur+0x260>
  2023e3: 81 7d 0c f8 ff ff 0f         	cmpl	$268435448, 12(%ebp)
  2023ea: 75 1a                        	jne	26 <_ZN5Ecran12afficherBaseEji7Couleur+0x54>
  2023ec: 83 ec 04                     	subl	$4, %esp
  2023ef: 6a 0f                        	pushl	$15
  2023f1: 68 2a 4b 20 00               	pushl	$2116394
  2023f6: ff 75 08                     	pushl	8(%ebp)
  2023f9: e8 be fc ff ff               	calll	-834 <_ZN5Ecran11afficherMotEPKc7Couleur>
  2023fe: 83 c4 10                     	addl	$16, %esp
  202401: e9 0c 02 00 00               	jmp	524 <_ZN5Ecran12afficherBaseEji7Couleur+0x260>
  202406: 81 7d 0c ff c9 9a 3b         	cmpl	$999999999, 12(%ebp)
  20240d: 76 1a                        	jbe	26 <_ZN5Ecran12afficherBaseEji7Couleur+0x77>
  20240f: 83 ec 04                     	subl	$4, %esp
  202412: 6a 0f                        	pushl	$15
  202414: 68 3a 4b 20 00               	pushl	$2116410
  202419: ff 75 08                     	pushl	8(%ebp)
  20241c: e8 9b fc ff ff               	calll	-869 <_ZN5Ecran11afficherMotEPKc7Couleur>
  202421: 83 c4 10                     	addl	$16, %esp
  202424: e9 e9 01 00 00               	jmp	489 <_ZN5Ecran12afficherBaseEji7Couleur+0x260>
  202429: c7 45 ec 00 00 00 00         	movl	$0, -20(%ebp)
  202430: 83 7d ec 08                  	cmpl	$8, -20(%ebp)
  202434: 7f 10                        	jg	16 <_ZN5Ecran12afficherBaseEji7Couleur+0x94>
  202436: 8b 45 ec                     	movl	-20(%ebp), %eax
  202439: c7 44 85 c4 ff ff ff ff      	movl	$4294967295, -60(%ebp,%eax,4)
  202441: ff 45 ec                     	incl	-20(%ebp)
  202444: eb ea                        	jmp	-22 <_ZN5Ecran12afficherBaseEji7Couleur+0x7e>
  202446: 8b 45 10                     	movl	16(%ebp), %eax
  202449: 89 45 f0                     	movl	%eax, -16(%ebp)
  20244c: c7 45 f4 00 00 00 00         	movl	$0, -12(%ebp)
  202453: 8b 45 0c                     	movl	12(%ebp), %eax
  202456: 3b 45 f0                     	cmpl	-16(%ebp), %eax
  202459: 72 11                        	jb	17 <_ZN5Ecran12afficherBaseEji7Couleur+0xba>
  20245b: 8b 45 10                     	movl	16(%ebp), %eax
  20245e: 8b 55 f0                     	movl	-16(%ebp), %edx
  202461: 0f af c2                     	imull	%edx, %eax
  202464: 89 45 f0                     	movl	%eax, -16(%ebp)
  202467: ff 45 f4                     	incl	-12(%ebp)
  20246a: eb e7                        	jmp	-25 <_ZN5Ecran12afficherBaseEji7Couleur+0xa1>
  20246c: 83 7d f4 00                  	cmpl	$0, -12(%ebp)
  202470: 78 37                        	js	55 <_ZN5Ecran12afficherBaseEji7Couleur+0xf7>
  202472: 8b 4d 10                     	movl	16(%ebp), %ecx
  202475: 8b 45 f0                     	movl	-16(%ebp), %eax
  202478: ba 00 00 00 00               	movl	$0, %edx
  20247d: f7 f1                        	divl	%ecx
  20247f: 89 45 f0                     	movl	%eax, -16(%ebp)
  202482: 8b 45 0c                     	movl	12(%ebp), %eax
  202485: ba 00 00 00 00               	movl	$0, %edx
  20248a: f7 75 f0                     	divl	-16(%ebp)
  20248d: 89 c2                        	movl	%eax, %edx
  20248f: 8b 45 f4                     	movl	-12(%ebp), %eax
  202492: 89 54 85 c4                  	movl	%edx, -60(%ebp,%eax,4)
  202496: 8b 45 f4                     	movl	-12(%ebp), %eax
  202499: 8b 44 85 c4                  	movl	-60(%ebp,%eax,4), %eax
  20249d: 0f af 45 f0                  	imull	-16(%ebp), %eax
  2024a1: 29 45 0c                     	subl	%eax, 12(%ebp)
  2024a4: ff 4d f4                     	decl	-12(%ebp)
  2024a7: eb c3                        	jmp	-61 <_ZN5Ecran12afficherBaseEji7Couleur+0xba>
  2024a9: c7 45 e8 08 00 00 00         	movl	$8, -24(%ebp)
  2024b0: 83 7d e8 00                  	cmpl	$0, -24(%ebp)
  2024b4: 0f 88 58 01 00 00            	js	344 <_ZN5Ecran12afficherBaseEji7Couleur+0x260>
  2024ba: 8b 45 e8                     	movl	-24(%ebp), %eax
  2024bd: 8b 44 85 c4                  	movl	-60(%ebp,%eax,4), %eax
  2024c1: 85 c0                        	testl	%eax, %eax
  2024c3: 0f 88 41 01 00 00            	js	321 <_ZN5Ecran12afficherBaseEji7Couleur+0x258>
  2024c9: 8b 45 e8                     	movl	-24(%ebp), %eax
  2024cc: 8b 44 85 c4                  	movl	-60(%ebp,%eax,4), %eax
  2024d0: 83 e8 0a                     	subl	$10, %eax
  2024d3: 83 f8 05                     	cmpl	$5, %eax
  2024d6: 0f 87 f0 00 00 00            	ja	240 <_ZN5Ecran12afficherBaseEji7Couleur+0x21a>
  2024dc: 8b 04 85 50 4b 20 00         	movl	2116432(,%eax,4), %eax
  2024e3: ff e0                        	jmpl	*%eax
  2024e5: 8b 45 08                     	movl	8(%ebp), %eax
  2024e8: 8b 50 08                     	movl	8(%eax), %edx
  2024eb: 8b 45 08                     	movl	8(%ebp), %eax
  2024ee: 8b 40 04                     	movl	4(%eax), %eax
  2024f1: 83 ec 08                     	subl	$8, %esp
  2024f4: 6a 61                        	pushl	$97
  2024f6: 6a 00                        	pushl	$0
  2024f8: ff 75 14                     	pushl	20(%ebp)
  2024fb: 52                           	pushl	%edx
  2024fc: 50                           	pushl	%eax
  2024fd: ff 75 08                     	pushl	8(%ebp)
  202500: e8 0f fb ff ff               	calll	-1265 <_ZN5Ecran17afficherCaractereEii7CouleurS0_c>
  202505: 83 c4 20                     	addl	$32, %esp
  202508: e9 ee 00 00 00               	jmp	238 <_ZN5Ecran12afficherBaseEji7Couleur+0x249>
  20250d: 8b 45 08                     	movl	8(%ebp), %eax
  202510: 8b 50 08                     	movl	8(%eax), %edx
  202513: 8b 45 08                     	movl	8(%ebp), %eax
  202516: 8b 40 04                     	movl	4(%eax), %eax
  202519: 83 ec 08                     	subl	$8, %esp
  20251c: 6a 62                        	pushl	$98
  20251e: 6a 00                        	pushl	$0
  202520: ff 75 14                     	pushl	20(%ebp)
  202523: 52                           	pushl	%edx
  202524: 50                           	pushl	%eax
  202525: ff 75 08                     	pushl	8(%ebp)
  202528: e8 e7 fa ff ff               	calll	-1305 <_ZN5Ecran17afficherCaractereEii7CouleurS0_c>
  20252d: 83 c4 20                     	addl	$32, %esp
  202530: e9 c6 00 00 00               	jmp	198 <_ZN5Ecran12afficherBaseEji7Couleur+0x249>
  202535: 8b 45 08                     	movl	8(%ebp), %eax
  202538: 8b 50 08                     	movl	8(%eax), %edx
  20253b: 8b 45 08                     	movl	8(%ebp), %eax
  20253e: 8b 40 04                     	movl	4(%eax), %eax
  202541: 83 ec 08                     	subl	$8, %esp
  202544: 6a 63                        	pushl	$99
  202546: 6a 00                        	pushl	$0
  202548: ff 75 14                     	pushl	20(%ebp)
  20254b: 52                           	pushl	%edx
  20254c: 50                           	pushl	%eax
  20254d: ff 75 08                     	pushl	8(%ebp)
  202550: e8 bf fa ff ff               	calll	-1345 <_ZN5Ecran17afficherCaractereEii7CouleurS0_c>
  202555: 83 c4 20                     	addl	$32, %esp
  202558: e9 9e 00 00 00               	jmp	158 <_ZN5Ecran12afficherBaseEji7Couleur+0x249>
  20255d: 8b 45 08                     	movl	8(%ebp), %eax
  202560: 8b 50 08                     	movl	8(%eax), %edx
  202563: 8b 45 08                     	movl	8(%ebp), %eax
  202566: 8b 40 04                     	movl	4(%eax), %eax
  202569: 83 ec 08                     	subl	$8, %esp
  20256c: 6a 64                        	pushl	$100
  20256e: 6a 00                        	pushl	$0
  202570: ff 75 14                     	pushl	20(%ebp)
  202573: 52                           	pushl	%edx
  202574: 50                           	pushl	%eax
  202575: ff 75 08                     	pushl	8(%ebp)
  202578: e8 97 fa ff ff               	calll	-1385 <_ZN5Ecran17afficherCaractereEii7CouleurS0_c>
  20257d: 83 c4 20                     	addl	$32, %esp
  202580: eb 79                        	jmp	121 <_ZN5Ecran12afficherBaseEji7Couleur+0x249>
  202582: 8b 45 08                     	movl	8(%ebp), %eax
  202585: 8b 50 08                     	movl	8(%eax), %edx
  202588: 8b 45 08                     	movl	8(%ebp), %eax
  20258b: 8b 40 04                     	movl	4(%eax), %eax
  20258e: 83 ec 08                     	subl	$8, %esp
  202591: 6a 65                        	pushl	$101
  202593: 6a 00                        	pushl	$0
  202595: ff 75 14                     	pushl	20(%ebp)
  202598: 52                           	pushl	%edx
  202599: 50                           	pushl	%eax
  20259a: ff 75 08                     	pushl	8(%ebp)
  20259d: e8 72 fa ff ff               	calll	-1422 <_ZN5Ecran17afficherCaractereEii7CouleurS0_c>
  2025a2: 83 c4 20                     	addl	$32, %esp
  2025a5: eb 54                        	jmp	84 <_ZN5Ecran12afficherBaseEji7Couleur+0x249>
  2025a7: 8b 45 08                     	movl	8(%ebp), %eax
  2025aa: 8b 50 08                     	movl	8(%eax), %edx
  2025ad: 8b 45 08                     	movl	8(%ebp), %eax
  2025b0: 8b 40 04                     	movl	4(%eax), %eax
  2025b3: 83 ec 08                     	subl	$8, %esp
  2025b6: 6a 66                        	pushl	$102
  2025b8: 6a 00                        	pushl	$0
  2025ba: ff 75 14                     	pushl	20(%ebp)
  2025bd: 52                           	pushl	%edx
  2025be: 50                           	pushl	%eax
  2025bf: ff 75 08                     	pushl	8(%ebp)
  2025c2: e8 4d fa ff ff               	calll	-1459 <_ZN5Ecran17afficherCaractereEii7CouleurS0_c>
  2025c7: 83 c4 20                     	addl	$32, %esp
  2025ca: eb 2f                        	jmp	47 <_ZN5Ecran12afficherBaseEji7Couleur+0x249>
  2025cc: 8b 45 e8                     	movl	-24(%ebp), %eax
  2025cf: 8b 44 85 c4                  	movl	-60(%ebp,%eax,4), %eax
  2025d3: 83 c0 30                     	addl	$48, %eax
  2025d6: 0f be c8                     	movsbl	%al, %ecx
  2025d9: 8b 45 08                     	movl	8(%ebp), %eax
  2025dc: 8b 50 08                     	movl	8(%eax), %edx
  2025df: 8b 45 08                     	movl	8(%ebp), %eax
  2025e2: 8b 40 04                     	movl	4(%eax), %eax
  2025e5: 83 ec 08                     	subl	$8, %esp
  2025e8: 51                           	pushl	%ecx
  2025e9: 6a 00                        	pushl	$0
  2025eb: ff 75 14                     	pushl	20(%ebp)
  2025ee: 52                           	pushl	%edx
  2025ef: 50                           	pushl	%eax
  2025f0: ff 75 08                     	pushl	8(%ebp)
  2025f3: e8 1c fa ff ff               	calll	-1508 <_ZN5Ecran17afficherCaractereEii7CouleurS0_c>
  2025f8: 83 c4 20                     	addl	$32, %esp
  2025fb: 8b 45 08                     	movl	8(%ebp), %eax
  2025fe: 8b 40 08                     	movl	8(%eax), %eax
  202601: 8d 50 01                     	leal	1(%eax), %edx
  202604: 8b 45 08                     	movl	8(%ebp), %eax
  202607: 89 50 08                     	movl	%edx, 8(%eax)
  20260a: ff 4d e8                     	decl	-24(%ebp)
  20260d: e9 9e fe ff ff               	jmp	-354 <_ZN5Ecran12afficherBaseEji7Couleur+0xfe>
  202612: 90                           	nop
  202613: c9                           	leave
  202614: c3                           	retl
  202615: 90                           	nop

00202616 Clavier::testChar():
  202616: 55                           	pushl	%ebp
  202617: 89 e5                        	movl	%esp, %ebp
  202619: a0 a0 92 20 00               	movb	2134688, %al
  20261e: 5d                           	popl	%ebp
  20261f: c3                           	retl

00202620 Clavier::getchar():
  202620: 55                           	pushl	%ebp
  202621: 89 e5                        	movl	%esp, %ebp
  202623: a0 a0 92 20 00               	movb	2134688, %al
  202628: 84 c0                        	testb	%al, %al
  20262a: 75 02                        	jne	2 <_ZN7Clavier7getcharEv+0xe>
  20262c: eb f5                        	jmp	-11 <_ZN7Clavier7getcharEv+0x3>
  20262e: c6 05 a0 92 20 00 00         	movb	$0, 2134688
  202635: c7 05 80 91 20 00 00 00 00 00	movl	$0, 2134400
  20263f: a0 a0 91 20 00               	movb	2134432, %al
  202644: 5d                           	popl	%ebp
  202645: c3                           	retl

00202646 Clavier::getString():
  202646: 55                           	pushl	%ebp
  202647: 89 e5                        	movl	%esp, %ebp
  202649: a0 a0 92 20 00               	movb	2134688, %al
  20264e: 84 c0                        	testb	%al, %al
  202650: 75 02                        	jne	2 <_ZN7Clavier9getStringEv+0xe>
  202652: eb f5                        	jmp	-11 <_ZN7Clavier9getStringEv+0x3>
  202654: c6 05 a0 92 20 00 00         	movb	$0, 2134688
  20265b: c7 05 80 91 20 00 00 00 00 00	movl	$0, 2134400
  202665: b8 a0 91 20 00               	movl	$2134432, %eax
  20266a: 5d                           	popl	%ebp
  20266b: c3                           	retl

0020266c Clavier::set_leds():
  20266c: 55                           	pushl	%ebp
  20266d: 89 e5                        	movl	%esp, %ebp
  20266f: 83 ec 08                     	subl	$8, %esp
  202672: 83 ec 08                     	subl	$8, %esp
  202675: 68 ed 00 00 00               	pushl	$237
  20267a: 6a 60                        	pushl	$96
  20267c: e8 13 ed ff ff               	calll	-4845 <_Z11ecrireOctethi>
  202681: 83 c4 10                     	addl	$16, %esp
  202684: 90                           	nop
  202685: c9                           	leave
  202686: c3                           	retl
  202687: 90                           	nop

00202688 PortSerie::ecrireMot(char const*):
  202688: 55                           	pushl	%ebp
  202689: 89 e5                        	movl	%esp, %ebp
  20268b: 83 ec 18                     	subl	$24, %esp
  20268e: c7 45 f4 00 00 00 00         	movl	$0, -12(%ebp)
  202695: 8b 55 f4                     	movl	-12(%ebp), %edx
  202698: 8b 45 0c                     	movl	12(%ebp), %eax
  20269b: 01 d0                        	addl	%edx, %eax
  20269d: 8a 00                        	movb	(%eax), %al
  20269f: 84 c0                        	testb	%al, %al
  2026a1: 74 23                        	je	35 <_ZN9PortSerie9ecrireMotEPKc+0x3e>
  2026a3: 8b 55 f4                     	movl	-12(%ebp), %edx
  2026a6: 8b 45 0c                     	movl	12(%ebp), %eax
  2026a9: 01 d0                        	addl	%edx, %eax
  2026ab: 8a 00                        	movb	(%eax), %al
  2026ad: 0f b6 c0                     	movzbl	%al, %eax
  2026b0: 83 ec 08                     	subl	$8, %esp
  2026b3: 68 f8 03 00 00               	pushl	$1016
  2026b8: 50                           	pushl	%eax
  2026b9: e8 d6 ec ff ff               	calll	-4906 <_Z11ecrireOctethi>
  2026be: 83 c4 10                     	addl	$16, %esp
  2026c1: ff 45 f4                     	incl	-12(%ebp)
  2026c4: eb cf                        	jmp	-49 <_ZN9PortSerie9ecrireMotEPKc+0xd>
  2026c6: 90                           	nop
  2026c7: c9                           	leave
  2026c8: c3                           	retl
  2026c9: 90                           	nop

002026ca Timer::i8254_set_frequency(unsigned int):
  2026ca: 55                           	pushl	%ebp
  2026cb: 89 e5                        	movl	%esp, %ebp
  2026cd: 83 ec 18                     	subl	$24, %esp
  2026d0: 83 7d 0c 00                  	cmpl	$0, 12(%ebp)
  2026d4: 75 07                        	jne	7 <_ZN5Timer19i8254_set_frequencyEj+0x13>
  2026d6: b8 01 ff ff ff               	movl	$4294967041, %eax
  2026db: eb 7c                        	jmp	124 <_ZN5Timer19i8254_set_frequencyEj+0x8f>
  2026dd: b8 dc 34 12 00               	movl	$1193180, %eax
  2026e2: ba 00 00 00 00               	movl	$0, %edx
  2026e7: f7 75 0c                     	divl	12(%ebp)
  2026ea: 89 45 f4                     	movl	%eax, -12(%ebp)
  2026ed: 81 7d f4 00 00 01 00         	cmpl	$65536, -12(%ebp)
  2026f4: 76 07                        	jbe	7 <_ZN5Timer19i8254_set_frequencyEj+0x33>
  2026f6: b8 01 ff ff ff               	movl	$4294967041, %eax
  2026fb: eb 5c                        	jmp	92 <_ZN5Timer19i8254_set_frequencyEj+0x8f>
  2026fd: 83 7d f4 00                  	cmpl	$0, -12(%ebp)
  202701: 75 07                        	jne	7 <_ZN5Timer19i8254_set_frequencyEj+0x40>
  202703: b8 01 ff ff ff               	movl	$4294967041, %eax
  202708: eb 4f                        	jmp	79 <_ZN5Timer19i8254_set_frequencyEj+0x8f>
  20270a: 81 7d f4 00 00 01 00         	cmpl	$65536, -12(%ebp)
  202711: 75 07                        	jne	7 <_ZN5Timer19i8254_set_frequencyEj+0x50>
  202713: c7 45 f4 00 00 00 00         	movl	$0, -12(%ebp)
  20271a: 83 ec 08                     	subl	$8, %esp
  20271d: 6a 43                        	pushl	$67
  20271f: 6a 34                        	pushl	$52
  202721: e8 6e ec ff ff               	calll	-5010 <_Z11ecrireOctethi>
  202726: 83 c4 10                     	addl	$16, %esp
  202729: 8b 45 f4                     	movl	-12(%ebp), %eax
  20272c: 0f b6 c0                     	movzbl	%al, %eax
  20272f: 83 ec 08                     	subl	$8, %esp
  202732: 6a 40                        	pushl	$64
  202734: 50                           	pushl	%eax
  202735: e8 5a ec ff ff               	calll	-5030 <_Z11ecrireOctethi>
  20273a: 83 c4 10                     	addl	$16, %esp
  20273d: 8b 45 f4                     	movl	-12(%ebp), %eax
  202740: c1 e8 08                     	shrl	$8, %eax
  202743: 0f b6 c0                     	movzbl	%al, %eax
  202746: 83 ec 08                     	subl	$8, %esp
  202749: 6a 40                        	pushl	$64
  20274b: 50                           	pushl	%eax
  20274c: e8 43 ec ff ff               	calll	-5053 <_Z11ecrireOctethi>
  202751: 83 c4 10                     	addl	$16, %esp
  202754: b8 00 00 00 00               	movl	$0, %eax
  202759: c9                           	leave
  20275a: c3                           	retl
  20275b: 90                           	nop

0020275c Timer::getSecondes():
  20275c: 55                           	pushl	%ebp
  20275d: 89 e5                        	movl	%esp, %ebp
  20275f: a1 68 91 20 00               	movl	2134376, %eax
  202764: 5d                           	popl	%ebp
  202765: c3                           	retl

00202766 Case::init(int, int):
  202766: 55                           	pushl	%ebp
  202767: 89 e5                        	movl	%esp, %ebp
  202769: 83 ec 08                     	subl	$8, %esp
  20276c: 8b 45 08                     	movl	8(%ebp), %eax
  20276f: 8b 55 0c                     	movl	12(%ebp), %edx
  202772: 89 50 04                     	movl	%edx, 4(%eax)
  202775: 8b 45 08                     	movl	8(%ebp), %eax
  202778: 8b 55 10                     	movl	16(%ebp), %edx
  20277b: 89 50 08                     	movl	%edx, 8(%eax)
  20277e: 83 ec 0c                     	subl	$12, %esp
  202781: ff 75 08                     	pushl	8(%ebp)
  202784: e8 2b 00 00 00               	calll	43 <_ZN4Case11setCaseVideEv>
  202789: 83 c4 10                     	addl	$16, %esp
  20278c: 90                           	nop
  20278d: c9                           	leave
  20278e: c3                           	retl
  20278f: 90                           	nop

00202790 Case::getEtat():
  202790: 55                           	pushl	%ebp
  202791: 89 e5                        	movl	%esp, %ebp
  202793: 8b 45 08                     	movl	8(%ebp), %eax
  202796: 8b 40 0c                     	movl	12(%eax), %eax
  202799: 5d                           	popl	%ebp
  20279a: c3                           	retl
  20279b: 90                           	nop

0020279c Case::setEcran(Ecran*):
  20279c: 55                           	pushl	%ebp
  20279d: 89 e5                        	movl	%esp, %ebp
  20279f: 8b 45 08                     	movl	8(%ebp), %eax
  2027a2: 8b 55 0c                     	movl	12(%ebp), %edx
  2027a5: 89 10                        	movl	%edx, (%eax)
  2027a7: 90                           	nop
  2027a8: 5d                           	popl	%ebp
  2027a9: c3                           	retl

002027aa Case::getEcran():
  2027aa: 55                           	pushl	%ebp
  2027ab: 89 e5                        	movl	%esp, %ebp
  2027ad: 8b 45 08                     	movl	8(%ebp), %eax
  2027b0: 8b 00                        	movl	(%eax), %eax
  2027b2: 5d                           	popl	%ebp
  2027b3: c3                           	retl

002027b4 Case::setCaseVide():
  2027b4: 55                           	pushl	%ebp
  2027b5: 89 e5                        	movl	%esp, %ebp
  2027b7: 8b 45 08                     	movl	8(%ebp), %eax
  2027ba: c7 40 0c 00 00 00 00         	movl	$0, 12(%eax)
  2027c1: 90                           	nop
  2027c2: 5d                           	popl	%ebp
  2027c3: c3                           	retl

002027c4 Case::setCaseTrou():
  2027c4: 55                           	pushl	%ebp
  2027c5: 89 e5                        	movl	%esp, %ebp
  2027c7: 8b 45 08                     	movl	8(%ebp), %eax
  2027ca: c7 40 0c 14 00 00 00         	movl	$20, 12(%eax)
  2027d1: 90                           	nop
  2027d2: 5d                           	popl	%ebp
  2027d3: c3                           	retl

002027d4 Case::setCaseBord():
  2027d4: 55                           	pushl	%ebp
  2027d5: 89 e5                        	movl	%esp, %ebp
  2027d7: 8b 45 08                     	movl	8(%ebp), %eax
  2027da: c7 40 0c 0a 00 00 00         	movl	$10, 12(%eax)
  2027e1: 90                           	nop
  2027e2: 5d                           	popl	%ebp
  2027e3: c3                           	retl

002027e4 Case::paint():
  2027e4: 55                           	pushl	%ebp
  2027e5: 89 e5                        	movl	%esp, %ebp
  2027e7: 57                           	pushl	%edi
  2027e8: 56                           	pushl	%esi
  2027e9: 53                           	pushl	%ebx
  2027ea: 83 ec 0c                     	subl	$12, %esp
  2027ed: 8b 45 08                     	movl	8(%ebp), %eax
  2027f0: 8b 30                        	movl	(%eax), %esi
  2027f2: 83 ec 0c                     	subl	$12, %esp
  2027f5: ff 75 08                     	pushl	8(%ebp)
  2027f8: e8 8f 00 00 00               	calll	143 <_ZN4Case9CaractereEv>
  2027fd: 83 c4 10                     	addl	$16, %esp
  202800: 0f be f8                     	movsbl	%al, %edi
  202803: 83 ec 0c                     	subl	$12, %esp
  202806: ff 75 08                     	pushl	8(%ebp)
  202809: e8 74 00 00 00               	calll	116 <_ZN4Case9couleurArEv>
  20280e: 83 c4 10                     	addl	$16, %esp
  202811: 89 c3                        	movl	%eax, %ebx
  202813: 83 ec 0c                     	subl	$12, %esp
  202816: ff 75 08                     	pushl	8(%ebp)
  202819: e8 2a 00 00 00               	calll	42 <_ZN4Case9couleurPrEv>
  20281e: 83 c4 10                     	addl	$16, %esp
  202821: 8b 55 08                     	movl	8(%ebp), %edx
  202824: 8b 4a 08                     	movl	8(%edx), %ecx
  202827: 8b 55 08                     	movl	8(%ebp), %edx
  20282a: 8b 52 04                     	movl	4(%edx), %edx
  20282d: 83 ec 08                     	subl	$8, %esp
  202830: 57                           	pushl	%edi
  202831: 53                           	pushl	%ebx
  202832: 50                           	pushl	%eax
  202833: 51                           	pushl	%ecx
  202834: 52                           	pushl	%edx
  202835: 56                           	pushl	%esi
  202836: e8 d9 f7 ff ff               	calll	-2087 <_ZN5Ecran17afficherCaractereEii7CouleurS0_c>
  20283b: 83 c4 20                     	addl	$32, %esp
  20283e: 90                           	nop
  20283f: 8d 65 f4                     	leal	-12(%ebp), %esp
  202842: 5b                           	popl	%ebx
  202843: 5e                           	popl	%esi
  202844: 5f                           	popl	%edi
  202845: 5d                           	popl	%ebp
  202846: c3                           	retl
  202847: 90                           	nop

00202848 Case::couleurPr():
  202848: 55                           	pushl	%ebp
  202849: 89 e5                        	movl	%esp, %ebp
  20284b: 8b 45 08                     	movl	8(%ebp), %eax
  20284e: 8b 40 0c                     	movl	12(%eax), %eax
  202851: 83 f8 14                     	cmpl	$20, %eax
  202854: 74 1e                        	je	30 <_ZN4Case9couleurPrEv+0x2c>
  202856: 83 f8 14                     	cmpl	$20, %eax
  202859: 7f 20                        	jg	32 <_ZN4Case9couleurPrEv+0x33>
  20285b: 85 c0                        	testl	%eax, %eax
  20285d: 74 07                        	je	7 <_ZN4Case9couleurPrEv+0x1e>
  20285f: 83 f8 0a                     	cmpl	$10, %eax
  202862: 74 09                        	je	9 <_ZN4Case9couleurPrEv+0x25>
  202864: eb 15                        	jmp	21 <_ZN4Case9couleurPrEv+0x33>
  202866: b8 00 00 00 00               	movl	$0, %eax
  20286b: eb 13                        	jmp	19 <_ZN4Case9couleurPrEv+0x38>
  20286d: b8 0d 00 00 00               	movl	$13, %eax
  202872: eb 0c                        	jmp	12 <_ZN4Case9couleurPrEv+0x38>
  202874: b8 00 00 00 00               	movl	$0, %eax
  202879: eb 05                        	jmp	5 <_ZN4Case9couleurPrEv+0x38>
  20287b: b8 09 00 00 00               	movl	$9, %eax
  202880: 5d                           	popl	%ebp
  202881: c3                           	retl

00202882 Case::couleurAr():
  202882: 55                           	pushl	%ebp
  202883: 89 e5                        	movl	%esp, %ebp
  202885: b8 01 00 00 00               	movl	$1, %eax
  20288a: 5d                           	popl	%ebp
  20288b: c3                           	retl

0020288c Case::Caractere():
  20288c: 55                           	pushl	%ebp
  20288d: 89 e5                        	movl	%esp, %ebp
  20288f: 8b 45 08                     	movl	8(%ebp), %eax
  202892: 8b 40 0c                     	movl	12(%eax), %eax
  202895: 83 f8 28                     	cmpl	$40, %eax
  202898: 74 22                        	je	34 <_ZN4Case9CaractereEv+0x30>
  20289a: 83 f8 28                     	cmpl	$40, %eax
  20289d: 7f 21                        	jg	33 <_ZN4Case9CaractereEv+0x34>
  20289f: 83 f8 14                     	cmpl	$20, %eax
  2028a2: 74 14                        	je	20 <_ZN4Case9CaractereEv+0x2c>
  2028a4: 83 f8 14                     	cmpl	$20, %eax
  2028a7: 7f 17                        	jg	23 <_ZN4Case9CaractereEv+0x34>
  2028a9: 85 c0                        	testl	%eax, %eax
  2028ab: 74 07                        	je	7 <_ZN4Case9CaractereEv+0x28>
  2028ad: 83 f8 0a                     	cmpl	$10, %eax
  2028b0: 74 06                        	je	6 <_ZN4Case9CaractereEv+0x2c>
  2028b2: eb 0c                        	jmp	12 <_ZN4Case9CaractereEv+0x34>
  2028b4: b0 20                        	movb	$32, %al
  2028b6: eb 0a                        	jmp	10 <_ZN4Case9CaractereEv+0x36>
  2028b8: b0 db                        	movb	$-37, %al
  2028ba: eb 06                        	jmp	6 <_ZN4Case9CaractereEv+0x36>
  2028bc: b0 30                        	movb	$48, %al
  2028be: eb 02                        	jmp	2 <_ZN4Case9CaractereEv+0x36>
  2028c0: b0 58                        	movb	$88, %al
  2028c2: 5d                           	popl	%ebp
  2028c3: c3                           	retl

002028c4 Case::occupe():
  2028c4: 55                           	pushl	%ebp
  2028c5: 89 e5                        	movl	%esp, %ebp
  2028c7: 83 ec 08                     	subl	$8, %esp
  2028ca: 8b 45 08                     	movl	8(%ebp), %eax
  2028cd: 8b 50 0c                     	movl	12(%eax), %edx
  2028d0: 8b 45 08                     	movl	8(%ebp), %eax
  2028d3: 89 50 10                     	movl	%edx, 16(%eax)
  2028d6: 8b 45 08                     	movl	8(%ebp), %eax
  2028d9: c7 40 0c 28 00 00 00         	movl	$40, 12(%eax)
  2028e0: 83 ec 0c                     	subl	$12, %esp
  2028e3: ff 75 08                     	pushl	8(%ebp)
  2028e6: e8 f9 fe ff ff               	calll	-263 <_ZN4Case5paintEv>
  2028eb: 83 c4 10                     	addl	$16, %esp
  2028ee: 90                           	nop
  2028ef: c9                           	leave
  2028f0: c3                           	retl
  2028f1: 90                           	nop

002028f2 Case::libere():
  2028f2: 55                           	pushl	%ebp
  2028f3: 89 e5                        	movl	%esp, %ebp
  2028f5: 83 ec 08                     	subl	$8, %esp
  2028f8: 8b 45 08                     	movl	8(%ebp), %eax
  2028fb: 8b 50 10                     	movl	16(%eax), %edx
  2028fe: 8b 45 08                     	movl	8(%ebp), %eax
  202901: 89 50 0c                     	movl	%edx, 12(%eax)
  202904: 83 ec 0c                     	subl	$12, %esp
  202907: ff 75 08                     	pushl	8(%ebp)
  20290a: e8 d5 fe ff ff               	calll	-299 <_ZN4Case5paintEv>
  20290f: 83 c4 10                     	addl	$16, %esp
  202912: 90                           	nop
  202913: c9                           	leave
  202914: c3                           	retl
  202915: 90                           	nop

00202916 Case::EtatOld():
  202916: 55                           	pushl	%ebp
  202917: 89 e5                        	movl	%esp, %ebp
  202919: 8b 45 08                     	movl	8(%ebp), %eax
  20291c: 8b 40 10                     	movl	16(%eax), %eax
  20291f: 5d                           	popl	%ebp
  202920: c3                           	retl
  202921: 90                           	nop

00202922 Case::Etat():
  202922: 55                           	pushl	%ebp
  202923: 89 e5                        	movl	%esp, %ebp
  202925: 8b 45 08                     	movl	8(%ebp), %eax
  202928: 8b 40 0c                     	movl	12(%eax), %eax
  20292b: 5d                           	popl	%ebp
  20292c: c3                           	retl
  20292d: 90                           	nop

0020292e Random::random():
  20292e: 55                           	pushl	%ebp
  20292f: 89 e5                        	movl	%esp, %ebp
  202931: 53                           	pushl	%ebx
  202932: a1 a4 49 20 00               	movl	2116004, %eax
  202937: 8b 0d ac 49 20 00            	movl	2116012, %ecx
  20293d: ba 00 00 00 00               	movl	$0, %edx
  202942: f7 f1                        	divl	%ecx
  202944: a1 a8 49 20 00               	movl	2116008, %eax
  202949: 89 d1                        	movl	%edx, %ecx
  20294b: 0f af c8                     	imull	%eax, %ecx
  20294e: a1 a4 49 20 00               	movl	2116004, %eax
  202953: 8b 1d ac 49 20 00            	movl	2116012, %ebx
  202959: ba 00 00 00 00               	movl	$0, %edx
  20295e: f7 f3                        	divl	%ebx
  202960: 89 c2                        	movl	%eax, %edx
  202962: a1 b0 49 20 00               	movl	2116016, %eax
  202967: 0f af c2                     	imull	%edx, %eax
  20296a: 29 c1                        	subl	%eax, %ecx
  20296c: 89 c8                        	movl	%ecx, %eax
  20296e: a3 a4 49 20 00               	movl	%eax, 2116004
  202973: a1 a4 49 20 00               	movl	2116004, %eax
  202978: 5b                           	popl	%ebx
  202979: 5d                           	popl	%ebp
  20297a: c3                           	retl
  20297b: 90                           	nop

0020297c Random::nextInt(int):
  20297c: 55                           	pushl	%ebp
  20297d: 89 e5                        	movl	%esp, %ebp
  20297f: 83 ec 28                     	subl	$40, %esp
  202982: ff 75 08                     	pushl	8(%ebp)
  202985: e8 a4 ff ff ff               	calll	-92 <_ZN6Random6randomEv>
  20298a: 83 c4 04                     	addl	$4, %esp
  20298d: 89 45 d8                     	movl	%eax, -40(%ebp)
  202990: c7 45 dc 00 00 00 00         	movl	$0, -36(%ebp)
  202997: df 6d d8                     	fildll	-40(%ebp)
  20299a: db 7d f0                     	fstpt	-16(%ebp)
  20299d: db 6d f0                     	fldt	-16(%ebp)
  2029a0: db 2d 70 4b 20 00            	fldt	2116464
  2029a6: de f9                        	fdivrp	%st, %st(1)
  2029a8: db 7d e4                     	fstpt	-28(%ebp)
  2029ab: db 45 0c                     	fildl	12(%ebp)
  2029ae: db 6d e4                     	fldt	-28(%ebp)
  2029b1: de c9                        	fmulp	%st, %st(1)
  2029b3: db 7d e4                     	fstpt	-28(%ebp)
  2029b6: c7 45 fc 00 00 00 00         	movl	$0, -4(%ebp)
  2029bd: db 45 fc                     	fildl	-4(%ebp)
  2029c0: db 6d e4                     	fldt	-28(%ebp)
  2029c3: de d9                        	fcompp
  2029c5: df e0                        	fnstsw	%ax
  2029c7: f6 c4 45                     	testb	$69, %ah
  2029ca: 0f 94 c0                     	sete	%al
  2029cd: 83 f0 01                     	xorl	$1, %eax
  2029d0: 84 c0                        	testb	%al, %al
  2029d2: 75 0d                        	jne	13 <_ZN6Random7nextIntEi+0x65>
  2029d4: 8b 45 fc                     	movl	-4(%ebp), %eax
  2029d7: 3b 45 0c                     	cmpl	12(%ebp), %eax
  2029da: 7d 05                        	jge	5 <_ZN6Random7nextIntEi+0x65>
  2029dc: ff 45 fc                     	incl	-4(%ebp)
  2029df: eb dc                        	jmp	-36 <_ZN6Random7nextIntEi+0x41>
  2029e1: 8b 45 fc                     	movl	-4(%ebp), %eax
  2029e4: c9                           	leave
  2029e5: c3                           	retl

002029e6 Random::nextBool():
  2029e6: 55                           	pushl	%ebp
  2029e7: 89 e5                        	movl	%esp, %ebp
  2029e9: 83 ec 18                     	subl	$24, %esp
  2029ec: ff 75 08                     	pushl	8(%ebp)
  2029ef: e8 3a ff ff ff               	calll	-198 <_ZN6Random6randomEv>
  2029f4: 83 c4 04                     	addl	$4, %esp
  2029f7: 89 45 fc                     	movl	%eax, -4(%ebp)
  2029fa: 8b 45 fc                     	movl	-4(%ebp), %eax
  2029fd: 83 f8 fb                     	cmpl	$-5, %eax
  202a00: 0f 93 c0                     	setae	%al
  202a03: 0f b6 c0                     	movzbl	%al, %eax
  202a06: 89 45 e8                     	movl	%eax, -24(%ebp)
  202a09: c7 45 ec 00 00 00 00         	movl	$0, -20(%ebp)
  202a10: df 6d e8                     	fildll	-24(%ebp)
  202a13: d9 5d f8                     	fstps	-8(%ebp)
  202a16: d9 45 f8                     	flds	-8(%ebp)
  202a19: d9 05 7c 4b 20 00            	flds	2116476
  202a1f: de d9                        	fcompp
  202a21: df e0                        	fnstsw	%ax
  202a23: f6 c4 45                     	testb	$69, %ah
  202a26: 75 04                        	jne	4 <_ZN6Random8nextBoolEv+0x46>
  202a28: b0 01                        	movb	$1, %al
  202a2a: eb 02                        	jmp	2 <_ZN6Random8nextBoolEv+0x48>
  202a2c: b0 00                        	movb	$0, %al
  202a2e: c9                           	leave
  202a2f: c3                           	retl

00202a30 Balle::Balle(Grille*):
  202a30: 55                           	pushl	%ebp
  202a31: 89 e5                        	movl	%esp, %ebp
  202a33: 83 ec 18                     	subl	$24, %esp
  202a36: 8b 45 08                     	movl	8(%ebp), %eax
  202a39: 8b 55 0c                     	movl	12(%ebp), %edx
  202a3c: 89 10                        	movl	%edx, (%eax)
  202a3e: 8b 45 08                     	movl	8(%ebp), %eax
  202a41: c7 40 04 80 1a 06 00         	movl	$400000, 4(%eax)
  202a48: 83 ec 08                     	subl	$8, %esp
  202a4b: 6a 50                        	pushl	$80
  202a4d: 8d 45 f7                     	leal	-9(%ebp), %eax
  202a50: 50                           	pushl	%eax
  202a51: e8 26 ff ff ff               	calll	-218 <_ZN6Random7nextIntEi>
  202a56: 83 c4 10                     	addl	$16, %esp
  202a59: 8d 50 01                     	leal	1(%eax), %edx
  202a5c: 8b 45 08                     	movl	8(%ebp), %eax
  202a5f: 89 50 0c                     	movl	%edx, 12(%eax)
  202a62: 83 ec 08                     	subl	$8, %esp
  202a65: 6a 19                        	pushl	$25
  202a67: 8d 45 f7                     	leal	-9(%ebp), %eax
  202a6a: 50                           	pushl	%eax
  202a6b: e8 0c ff ff ff               	calll	-244 <_ZN6Random7nextIntEi>
  202a70: 83 c4 10                     	addl	$16, %esp
  202a73: 8d 50 01                     	leal	1(%eax), %edx
  202a76: 8b 45 08                     	movl	8(%ebp), %eax
  202a79: 89 50 08                     	movl	%edx, 8(%eax)
  202a7c: 8b 45 08                     	movl	8(%ebp), %eax
  202a7f: 8b 00                        	movl	(%eax), %eax
  202a81: 8b 55 08                     	movl	8(%ebp), %edx
  202a84: 8b 4a 0c                     	movl	12(%edx), %ecx
  202a87: 8b 55 08                     	movl	8(%ebp), %edx
  202a8a: 8b 52 08                     	movl	8(%edx), %edx
  202a8d: 83 ec 04                     	subl	$4, %esp
  202a90: 51                           	pushl	%ecx
  202a91: 52                           	pushl	%edx
  202a92: 50                           	pushl	%eax
  202a93: e8 6e 12 00 00               	calll	4718 <_ZN6Grille7getCaseEii>
  202a98: 83 c4 10                     	addl	$16, %esp
  202a9b: 83 ec 0c                     	subl	$12, %esp
  202a9e: 50                           	pushl	%eax
  202a9f: e8 20 fe ff ff               	calll	-480 <_ZN4Case6occupeEv>
  202aa4: 83 c4 10                     	addl	$16, %esp
  202aa7: 8b 45 08                     	movl	8(%ebp), %eax
  202aaa: c7 40 10 01 00 00 00         	movl	$1, 16(%eax)
  202ab1: 83 ec 0c                     	subl	$12, %esp
  202ab4: 8d 45 f7                     	leal	-9(%ebp), %eax
  202ab7: 50                           	pushl	%eax
  202ab8: e8 29 ff ff ff               	calll	-215 <_ZN6Random8nextBoolEv>
  202abd: 83 c4 10                     	addl	$16, %esp
  202ac0: 84 c0                        	testb	%al, %al
  202ac2: 74 10                        	je	16 <_ZN5BalleC2EP6Grille+0xa4>
  202ac4: 8b 45 08                     	movl	8(%ebp), %eax
  202ac7: 8b 40 10                     	movl	16(%eax), %eax
  202aca: f7 d8                        	negl	%eax
  202acc: 89 c2                        	movl	%eax, %edx
  202ace: 8b 45 08                     	movl	8(%ebp), %eax
  202ad1: 89 50 10                     	movl	%edx, 16(%eax)
  202ad4: 8b 45 08                     	movl	8(%ebp), %eax
  202ad7: c7 40 14 01 00 00 00         	movl	$1, 20(%eax)
  202ade: 83 ec 0c                     	subl	$12, %esp
  202ae1: 8d 45 f7                     	leal	-9(%ebp), %eax
  202ae4: 50                           	pushl	%eax
  202ae5: e8 fc fe ff ff               	calll	-260 <_ZN6Random8nextBoolEv>
  202aea: 83 c4 10                     	addl	$16, %esp
  202aed: 84 c0                        	testb	%al, %al
  202aef: 74 10                        	je	16 <_ZN5BalleC2EP6Grille+0xd1>
  202af1: 8b 45 08                     	movl	8(%ebp), %eax
  202af4: 8b 40 14                     	movl	20(%eax), %eax
  202af7: f7 d8                        	negl	%eax
  202af9: 89 c2                        	movl	%eax, %edx
  202afb: 8b 45 08                     	movl	8(%ebp), %eax
  202afe: 89 50 14                     	movl	%edx, 20(%eax)
  202b01: 90                           	nop
  202b02: c9                           	leave
  202b03: c3                           	retl

00202b04 Balle::bouger():
  202b04: 55                           	pushl	%ebp
  202b05: 89 e5                        	movl	%esp, %ebp
  202b07: 83 ec 18                     	subl	$24, %esp
  202b0a: 8b 45 08                     	movl	8(%ebp), %eax
  202b0d: 8b 50 08                     	movl	8(%eax), %edx
  202b10: 8b 45 08                     	movl	8(%ebp), %eax
  202b13: 8b 40 10                     	movl	16(%eax), %eax
  202b16: 01 d0                        	addl	%edx, %eax
  202b18: 89 45 f4                     	movl	%eax, -12(%ebp)
  202b1b: 8b 45 08                     	movl	8(%ebp), %eax
  202b1e: 8b 50 0c                     	movl	12(%eax), %edx
  202b21: 8b 45 08                     	movl	8(%ebp), %eax
  202b24: 8b 40 14                     	movl	20(%eax), %eax
  202b27: 01 d0                        	addl	%edx, %eax
  202b29: 89 45 f0                     	movl	%eax, -16(%ebp)
  202b2c: 8b 45 08                     	movl	8(%ebp), %eax
  202b2f: 8b 00                        	movl	(%eax), %eax
  202b31: 83 ec 04                     	subl	$4, %esp
  202b34: ff 75 f0                     	pushl	-16(%ebp)
  202b37: ff 75 f4                     	pushl	-12(%ebp)
  202b3a: 50                           	pushl	%eax
  202b3b: e8 c6 11 00 00               	calll	4550 <_ZN6Grille7getCaseEii>
  202b40: 83 c4 10                     	addl	$16, %esp
  202b43: 83 ec 0c                     	subl	$12, %esp
  202b46: 50                           	pushl	%eax
  202b47: e8 78 fd ff ff               	calll	-648 <_ZN4Case6occupeEv>
  202b4c: 83 c4 10                     	addl	$16, %esp
  202b4f: 8b 45 08                     	movl	8(%ebp), %eax
  202b52: 8b 00                        	movl	(%eax), %eax
  202b54: 8b 55 08                     	movl	8(%ebp), %edx
  202b57: 8b 4a 0c                     	movl	12(%edx), %ecx
  202b5a: 8b 55 08                     	movl	8(%ebp), %edx
  202b5d: 8b 52 08                     	movl	8(%edx), %edx
  202b60: 83 ec 04                     	subl	$4, %esp
  202b63: 51                           	pushl	%ecx
  202b64: 52                           	pushl	%edx
  202b65: 50                           	pushl	%eax
  202b66: e8 9b 11 00 00               	calll	4507 <_ZN6Grille7getCaseEii>
  202b6b: 83 c4 10                     	addl	$16, %esp
  202b6e: 83 ec 0c                     	subl	$12, %esp
  202b71: 50                           	pushl	%eax
  202b72: e8 7b fd ff ff               	calll	-645 <_ZN4Case6libereEv>
  202b77: 83 c4 10                     	addl	$16, %esp
  202b7a: 8b 45 08                     	movl	8(%ebp), %eax
  202b7d: 8b 55 f4                     	movl	-12(%ebp), %edx
  202b80: 89 50 08                     	movl	%edx, 8(%eax)
  202b83: 8b 45 08                     	movl	8(%ebp), %eax
  202b86: 8b 55 f0                     	movl	-16(%ebp), %edx
  202b89: 89 50 0c                     	movl	%edx, 12(%eax)
  202b8c: 90                           	nop
  202b8d: c9                           	leave
  202b8e: c3                           	retl
  202b8f: 90                           	nop

00202b90 Balle::avance():
  202b90: 55                           	pushl	%ebp
  202b91: 89 e5                        	movl	%esp, %ebp
  202b93: 53                           	pushl	%ebx
  202b94: 83 ec 14                     	subl	$20, %esp
  202b97: c7 45 f4 00 00 00 00         	movl	$0, -12(%ebp)
  202b9e: 8b 45 08                     	movl	8(%ebp), %eax
  202ba1: 8b 40 04                     	movl	4(%eax), %eax
  202ba4: 39 45 f4                     	cmpl	%eax, -12(%ebp)
  202ba7: 7d 05                        	jge	5 <_ZN5Balle6avanceEv+0x1e>
  202ba9: ff 45 f4                     	incl	-12(%ebp)
  202bac: eb f0                        	jmp	-16 <_ZN5Balle6avanceEv+0xe>
  202bae: 8b 45 08                     	movl	8(%ebp), %eax
  202bb1: 8b 00                        	movl	(%eax), %eax
  202bb3: 8b 55 08                     	movl	8(%ebp), %edx
  202bb6: 8b 52 0c                     	movl	12(%edx), %edx
  202bb9: 8b 4d 08                     	movl	8(%ebp), %ecx
  202bbc: 8b 59 08                     	movl	8(%ecx), %ebx
  202bbf: 8b 4d 08                     	movl	8(%ebp), %ecx
  202bc2: 8b 49 10                     	movl	16(%ecx), %ecx
  202bc5: 01 d9                        	addl	%ebx, %ecx
  202bc7: 83 ec 04                     	subl	$4, %esp
  202bca: 52                           	pushl	%edx
  202bcb: 51                           	pushl	%ecx
  202bcc: 50                           	pushl	%eax
  202bcd: e8 34 11 00 00               	calll	4404 <_ZN6Grille7getCaseEii>
  202bd2: 83 c4 10                     	addl	$16, %esp
  202bd5: 83 ec 0c                     	subl	$12, %esp
  202bd8: 50                           	pushl	%eax
  202bd9: e8 44 fd ff ff               	calll	-700 <_ZN4Case4EtatEv>
  202bde: 83 c4 10                     	addl	$16, %esp
  202be1: 83 f8 0a                     	cmpl	$10, %eax
  202be4: 74 0a                        	je	10 <_ZN5Balle6avanceEv+0x60>
  202be6: 83 f8 14                     	cmpl	$20, %eax
  202be9: 74 17                        	je	23 <_ZN5Balle6avanceEv+0x72>
  202beb: e9 83 00 00 00               	jmp	131 <_ZN5Balle6avanceEv+0xe3>
  202bf0: 8b 45 08                     	movl	8(%ebp), %eax
  202bf3: 8b 40 10                     	movl	16(%eax), %eax
  202bf6: f7 d8                        	negl	%eax
  202bf8: 89 c2                        	movl	%eax, %edx
  202bfa: 8b 45 08                     	movl	8(%ebp), %eax
  202bfd: 89 50 10                     	movl	%edx, 16(%eax)
  202c00: eb 71                        	jmp	113 <_ZN5Balle6avanceEv+0xe3>
  202c02: 8b 45 08                     	movl	8(%ebp), %eax
  202c05: c7 40 10 00 00 00 00         	movl	$0, 16(%eax)
  202c0c: 8b 45 08                     	movl	8(%ebp), %eax
  202c0f: c7 40 14 00 00 00 00         	movl	$0, 20(%eax)
  202c16: 8b 45 08                     	movl	8(%ebp), %eax
  202c19: 8b 00                        	movl	(%eax), %eax
  202c1b: 8b 55 08                     	movl	8(%ebp), %edx
  202c1e: 8b 4a 0c                     	movl	12(%edx), %ecx
  202c21: 8b 55 08                     	movl	8(%ebp), %edx
  202c24: 8b 52 08                     	movl	8(%edx), %edx
  202c27: 83 ec 04                     	subl	$4, %esp
  202c2a: 51                           	pushl	%ecx
  202c2b: 52                           	pushl	%edx
  202c2c: 50                           	pushl	%eax
  202c2d: e8 d4 10 00 00               	calll	4308 <_ZN6Grille7getCaseEii>
  202c32: 83 c4 10                     	addl	$16, %esp
  202c35: 83 ec 0c                     	subl	$12, %esp
  202c38: 50                           	pushl	%eax
  202c39: e8 b4 fc ff ff               	calll	-844 <_ZN4Case6libereEv>
  202c3e: 83 c4 10                     	addl	$16, %esp
  202c41: 8b 45 08                     	movl	8(%ebp), %eax
  202c44: 8b 00                        	movl	(%eax), %eax
  202c46: 8b 55 08                     	movl	8(%ebp), %edx
  202c49: 8b 4a 0c                     	movl	12(%edx), %ecx
  202c4c: 8b 55 08                     	movl	8(%ebp), %edx
  202c4f: 8b 52 08                     	movl	8(%edx), %edx
  202c52: 83 ec 04                     	subl	$4, %esp
  202c55: 51                           	pushl	%ecx
  202c56: 52                           	pushl	%edx
  202c57: 50                           	pushl	%eax
  202c58: e8 a9 10 00 00               	calll	4265 <_ZN6Grille7getCaseEii>
  202c5d: 83 c4 10                     	addl	$16, %esp
  202c60: 83 ec 0c                     	subl	$12, %esp
  202c63: 50                           	pushl	%eax
  202c64: e8 7b fb ff ff               	calll	-1157 <_ZN4Case5paintEv>
  202c69: 83 c4 10                     	addl	$16, %esp
  202c6c: b0 00                        	movb	$0, %al
  202c6e: e9 fc 01 00 00               	jmp	508 <_ZN5Balle6avanceEv+0x2df>
  202c73: 8b 45 08                     	movl	8(%ebp), %eax
  202c76: 8b 00                        	movl	(%eax), %eax
  202c78: 8b 55 08                     	movl	8(%ebp), %edx
  202c7b: 8b 4a 0c                     	movl	12(%edx), %ecx
  202c7e: 8b 55 08                     	movl	8(%ebp), %edx
  202c81: 8b 52 14                     	movl	20(%edx), %edx
  202c84: 01 d1                        	addl	%edx, %ecx
  202c86: 8b 55 08                     	movl	8(%ebp), %edx
  202c89: 8b 52 08                     	movl	8(%edx), %edx
  202c8c: 83 ec 04                     	subl	$4, %esp
  202c8f: 51                           	pushl	%ecx
  202c90: 52                           	pushl	%edx
  202c91: 50                           	pushl	%eax
  202c92: e8 6f 10 00 00               	calll	4207 <_ZN6Grille7getCaseEii>
  202c97: 83 c4 10                     	addl	$16, %esp
  202c9a: 83 ec 0c                     	subl	$12, %esp
  202c9d: 50                           	pushl	%eax
  202c9e: e8 7f fc ff ff               	calll	-897 <_ZN4Case4EtatEv>
  202ca3: 83 c4 10                     	addl	$16, %esp
  202ca6: 83 f8 0a                     	cmpl	$10, %eax
  202ca9: 74 0a                        	je	10 <_ZN5Balle6avanceEv+0x125>
  202cab: 83 f8 14                     	cmpl	$20, %eax
  202cae: 74 17                        	je	23 <_ZN5Balle6avanceEv+0x137>
  202cb0: e9 83 00 00 00               	jmp	131 <_ZN5Balle6avanceEv+0x1a8>
  202cb5: 8b 45 08                     	movl	8(%ebp), %eax
  202cb8: 8b 40 14                     	movl	20(%eax), %eax
  202cbb: f7 d8                        	negl	%eax
  202cbd: 89 c2                        	movl	%eax, %edx
  202cbf: 8b 45 08                     	movl	8(%ebp), %eax
  202cc2: 89 50 14                     	movl	%edx, 20(%eax)
  202cc5: eb 71                        	jmp	113 <_ZN5Balle6avanceEv+0x1a8>
  202cc7: 8b 45 08                     	movl	8(%ebp), %eax
  202cca: c7 40 10 00 00 00 00         	movl	$0, 16(%eax)
  202cd1: 8b 45 08                     	movl	8(%ebp), %eax
  202cd4: c7 40 14 00 00 00 00         	movl	$0, 20(%eax)
  202cdb: 8b 45 08                     	movl	8(%ebp), %eax
  202cde: 8b 00                        	movl	(%eax), %eax
  202ce0: 8b 55 08                     	movl	8(%ebp), %edx
  202ce3: 8b 4a 0c                     	movl	12(%edx), %ecx
  202ce6: 8b 55 08                     	movl	8(%ebp), %edx
  202ce9: 8b 52 08                     	movl	8(%edx), %edx
  202cec: 83 ec 04                     	subl	$4, %esp
  202cef: 51                           	pushl	%ecx
  202cf0: 52                           	pushl	%edx
  202cf1: 50                           	pushl	%eax
  202cf2: e8 0f 10 00 00               	calll	4111 <_ZN6Grille7getCaseEii>
  202cf7: 83 c4 10                     	addl	$16, %esp
  202cfa: 83 ec 0c                     	subl	$12, %esp
  202cfd: 50                           	pushl	%eax
  202cfe: e8 ef fb ff ff               	calll	-1041 <_ZN4Case6libereEv>
  202d03: 83 c4 10                     	addl	$16, %esp
  202d06: 8b 45 08                     	movl	8(%ebp), %eax
  202d09: 8b 00                        	movl	(%eax), %eax
  202d0b: 8b 55 08                     	movl	8(%ebp), %edx
  202d0e: 8b 4a 0c                     	movl	12(%edx), %ecx
  202d11: 8b 55 08                     	movl	8(%ebp), %edx
  202d14: 8b 52 08                     	movl	8(%edx), %edx
  202d17: 83 ec 04                     	subl	$4, %esp
  202d1a: 51                           	pushl	%ecx
  202d1b: 52                           	pushl	%edx
  202d1c: 50                           	pushl	%eax
  202d1d: e8 e4 0f 00 00               	calll	4068 <_ZN6Grille7getCaseEii>
  202d22: 83 c4 10                     	addl	$16, %esp
  202d25: 83 ec 0c                     	subl	$12, %esp
  202d28: 50                           	pushl	%eax
  202d29: e8 b6 fa ff ff               	calll	-1354 <_ZN4Case5paintEv>
  202d2e: 83 c4 10                     	addl	$16, %esp
  202d31: b0 00                        	movb	$0, %al
  202d33: e9 37 01 00 00               	jmp	311 <_ZN5Balle6avanceEv+0x2df>
  202d38: 8b 45 08                     	movl	8(%ebp), %eax
  202d3b: 8b 00                        	movl	(%eax), %eax
  202d3d: 8b 55 08                     	movl	8(%ebp), %edx
  202d40: 8b 4a 0c                     	movl	12(%edx), %ecx
  202d43: 8b 55 08                     	movl	8(%ebp), %edx
  202d46: 8b 52 14                     	movl	20(%edx), %edx
  202d49: 01 d1                        	addl	%edx, %ecx
  202d4b: 8b 55 08                     	movl	8(%ebp), %edx
  202d4e: 8b 5a 08                     	movl	8(%edx), %ebx
  202d51: 8b 55 08                     	movl	8(%ebp), %edx
  202d54: 8b 52 10                     	movl	16(%edx), %edx
  202d57: 01 da                        	addl	%ebx, %edx
  202d59: 83 ec 04                     	subl	$4, %esp
  202d5c: 51                           	pushl	%ecx
  202d5d: 52                           	pushl	%edx
  202d5e: 50                           	pushl	%eax
  202d5f: e8 a2 0f 00 00               	calll	4002 <_ZN6Grille7getCaseEii>
  202d64: 83 c4 10                     	addl	$16, %esp
  202d67: 83 ec 0c                     	subl	$12, %esp
  202d6a: 50                           	pushl	%eax
  202d6b: e8 a6 fb ff ff               	calll	-1114 <_ZN4Case7EtatOldEv>
  202d70: 83 c4 10                     	addl	$16, %esp
  202d73: 83 f8 0a                     	cmpl	$10, %eax
  202d76: 75 21                        	jne	33 <_ZN5Balle6avanceEv+0x209>
  202d78: 8b 45 08                     	movl	8(%ebp), %eax
  202d7b: 8b 40 14                     	movl	20(%eax), %eax
  202d7e: f7 d8                        	negl	%eax
  202d80: 89 c2                        	movl	%eax, %edx
  202d82: 8b 45 08                     	movl	8(%ebp), %eax
  202d85: 89 50 14                     	movl	%edx, 20(%eax)
  202d88: 8b 45 08                     	movl	8(%ebp), %eax
  202d8b: 8b 40 10                     	movl	16(%eax), %eax
  202d8e: f7 d8                        	negl	%eax
  202d90: 89 c2                        	movl	%eax, %edx
  202d92: 8b 45 08                     	movl	8(%ebp), %eax
  202d95: 89 50 10                     	movl	%edx, 16(%eax)
  202d98: 90                           	nop
  202d99: 8b 45 08                     	movl	8(%ebp), %eax
  202d9c: 8b 00                        	movl	(%eax), %eax
  202d9e: 8b 55 08                     	movl	8(%ebp), %edx
  202da1: 8b 4a 0c                     	movl	12(%edx), %ecx
  202da4: 8b 55 08                     	movl	8(%ebp), %edx
  202da7: 8b 52 08                     	movl	8(%edx), %edx
  202daa: 83 ec 04                     	subl	$4, %esp
  202dad: 51                           	pushl	%ecx
  202dae: 52                           	pushl	%edx
  202daf: 50                           	pushl	%eax
  202db0: e8 51 0f 00 00               	calll	3921 <_ZN6Grille7getCaseEii>
  202db5: 83 c4 10                     	addl	$16, %esp
  202db8: 83 ec 0c                     	subl	$12, %esp
  202dbb: 50                           	pushl	%eax
  202dbc: e8 31 fb ff ff               	calll	-1231 <_ZN4Case6libereEv>
  202dc1: 83 c4 10                     	addl	$16, %esp
  202dc4: 8b 45 08                     	movl	8(%ebp), %eax
  202dc7: 8b 00                        	movl	(%eax), %eax
  202dc9: 8b 55 08                     	movl	8(%ebp), %edx
  202dcc: 8b 4a 0c                     	movl	12(%edx), %ecx
  202dcf: 8b 55 08                     	movl	8(%ebp), %edx
  202dd2: 8b 52 08                     	movl	8(%edx), %edx
  202dd5: 83 ec 04                     	subl	$4, %esp
  202dd8: 51                           	pushl	%ecx
  202dd9: 52                           	pushl	%edx
  202dda: 50                           	pushl	%eax
  202ddb: e8 26 0f 00 00               	calll	3878 <_ZN6Grille7getCaseEii>
  202de0: 83 c4 10                     	addl	$16, %esp
  202de3: 83 ec 0c                     	subl	$12, %esp
  202de6: 50                           	pushl	%eax
  202de7: e8 f8 f9 ff ff               	calll	-1544 <_ZN4Case5paintEv>
  202dec: 83 c4 10                     	addl	$16, %esp
  202def: 8b 45 08                     	movl	8(%ebp), %eax
  202df2: 8b 50 08                     	movl	8(%eax), %edx
  202df5: 8b 45 08                     	movl	8(%ebp), %eax
  202df8: 8b 40 10                     	movl	16(%eax), %eax
  202dfb: 01 c2                        	addl	%eax, %edx
  202dfd: 8b 45 08                     	movl	8(%ebp), %eax
  202e00: 89 50 08                     	movl	%edx, 8(%eax)
  202e03: 8b 45 08                     	movl	8(%ebp), %eax
  202e06: 8b 50 0c                     	movl	12(%eax), %edx
  202e09: 8b 45 08                     	movl	8(%ebp), %eax
  202e0c: 8b 40 14                     	movl	20(%eax), %eax
  202e0f: 01 c2                        	addl	%eax, %edx
  202e11: 8b 45 08                     	movl	8(%ebp), %eax
  202e14: 89 50 0c                     	movl	%edx, 12(%eax)
  202e17: 8b 45 08                     	movl	8(%ebp), %eax
  202e1a: 8b 00                        	movl	(%eax), %eax
  202e1c: 8b 55 08                     	movl	8(%ebp), %edx
  202e1f: 8b 4a 0c                     	movl	12(%edx), %ecx
  202e22: 8b 55 08                     	movl	8(%ebp), %edx
  202e25: 8b 52 08                     	movl	8(%edx), %edx
  202e28: 83 ec 04                     	subl	$4, %esp
  202e2b: 51                           	pushl	%ecx
  202e2c: 52                           	pushl	%edx
  202e2d: 50                           	pushl	%eax
  202e2e: e8 d3 0e 00 00               	calll	3795 <_ZN6Grille7getCaseEii>
  202e33: 83 c4 10                     	addl	$16, %esp
  202e36: 83 ec 0c                     	subl	$12, %esp
  202e39: 50                           	pushl	%eax
  202e3a: e8 85 fa ff ff               	calll	-1403 <_ZN4Case6occupeEv>
  202e3f: 83 c4 10                     	addl	$16, %esp
  202e42: 8b 45 08                     	movl	8(%ebp), %eax
  202e45: 8b 00                        	movl	(%eax), %eax
  202e47: 8b 55 08                     	movl	8(%ebp), %edx
  202e4a: 8b 4a 0c                     	movl	12(%edx), %ecx
  202e4d: 8b 55 08                     	movl	8(%ebp), %edx
  202e50: 8b 52 08                     	movl	8(%edx), %edx
  202e53: 83 ec 04                     	subl	$4, %esp
  202e56: 51                           	pushl	%ecx
  202e57: 52                           	pushl	%edx
  202e58: 50                           	pushl	%eax
  202e59: e8 a8 0e 00 00               	calll	3752 <_ZN6Grille7getCaseEii>
  202e5e: 83 c4 10                     	addl	$16, %esp
  202e61: 83 ec 0c                     	subl	$12, %esp
  202e64: 50                           	pushl	%eax
  202e65: e8 7a f9 ff ff               	calll	-1670 <_ZN4Case5paintEv>
  202e6a: 83 c4 10                     	addl	$16, %esp
  202e6d: b0 01                        	movb	$1, %al
  202e6f: 8b 5d fc                     	movl	-4(%ebp), %ebx
  202e72: c9                           	leave
  202e73: c3                           	retl

00202e74 SuperPong::init(Ecran*, Clavier*):
  202e74: 55                           	pushl	%ebp
  202e75: 89 e5                        	movl	%esp, %ebp
  202e77: 83 ec 08                     	subl	$8, %esp
  202e7a: 8b 45 08                     	movl	8(%ebp), %eax
  202e7d: 8b 55 0c                     	movl	12(%ebp), %edx
  202e80: 89 90 1c f4 01 00            	movl	%edx, 128028(%eax)
  202e86: 8b 45 08                     	movl	8(%ebp), %eax
  202e89: 8b 55 10                     	movl	16(%ebp), %edx
  202e8c: 89 90 18 f4 01 00            	movl	%edx, 128024(%eax)
  202e92: 83 ec 08                     	subl	$8, %esp
  202e95: 6a 00                        	pushl	$0
  202e97: ff 75 0c                     	pushl	12(%ebp)
  202e9a: e8 9f f0 ff ff               	calll	-3937 <_ZN5Ecran12effacerEcranE7Couleur>
  202e9f: 83 c4 10                     	addl	$16, %esp
  202ea2: 8b 45 08                     	movl	8(%ebp), %eax
  202ea5: 83 ec 08                     	subl	$8, %esp
  202ea8: ff 75 0c                     	pushl	12(%ebp)
  202eab: 50                           	pushl	%eax
  202eac: e8 e3 03 00 00               	calll	995 <_ZN6Grille4initEP5Ecran>
  202eb1: 83 c4 10                     	addl	$16, %esp
  202eb4: 8b 45 08                     	movl	8(%ebp), %eax
  202eb7: 83 ec 0c                     	subl	$12, %esp
  202eba: 50                           	pushl	%eax
  202ebb: e8 7c 0e 00 00               	calll	3708 <_ZN6Grille7afficheEv>
  202ec0: 83 c4 10                     	addl	$16, %esp
  202ec3: 90                           	nop
  202ec4: c9                           	leave
  202ec5: c3                           	retl

00202ec6 SuperPong::start():
  202ec6: 55                           	pushl	%ebp
  202ec7: 89 e5                        	movl	%esp, %ebp
  202ec9: 81 ec 28 01 00 00            	subl	$296, %esp
  202ecf: 8b 45 08                     	movl	8(%ebp), %eax
  202ed2: 83 ec 08                     	subl	$8, %esp
  202ed5: 50                           	pushl	%eax
  202ed6: 8d 85 d8 fe ff ff            	leal	-296(%ebp), %eax
  202edc: 50                           	pushl	%eax
  202edd: e8 4e fb ff ff               	calll	-1202 <_ZN5BalleC2EP6Grille>
  202ee2: 83 c4 10                     	addl	$16, %esp
  202ee5: 8b 45 08                     	movl	8(%ebp), %eax
  202ee8: 8b 80 18 f4 01 00            	movl	128024(%eax), %eax
  202eee: 83 ec 0c                     	subl	$12, %esp
  202ef1: 50                           	pushl	%eax
  202ef2: e8 1f f7 ff ff               	calll	-2273 <_ZN7Clavier8testCharEv>
  202ef7: 83 c4 10                     	addl	$16, %esp
  202efa: 84 c0                        	testb	%al, %al
  202efc: 0f 84 ff 00 00 00            	je	255 <_ZN9SuperPong5startEv+0x13b>
  202f02: 8b 45 08                     	movl	8(%ebp), %eax
  202f05: 8b 80 18 f4 01 00            	movl	128024(%eax), %eax
  202f0b: 83 ec 0c                     	subl	$12, %esp
  202f0e: 50                           	pushl	%eax
  202f0f: e8 32 f7 ff ff               	calll	-2254 <_ZN7Clavier9getStringEv>
  202f14: 83 c4 10                     	addl	$16, %esp
  202f17: 89 45 f0                     	movl	%eax, -16(%ebp)
  202f1a: c7 45 f4 00 00 00 00         	movl	$0, -12(%ebp)
  202f21: 81 7d f4 fe 00 00 00         	cmpl	$254, -12(%ebp)
  202f28: 7f 2a                        	jg	42 <_ZN9SuperPong5startEv+0x8e>
  202f2a: 8b 55 f4                     	movl	-12(%ebp), %edx
  202f2d: 8b 45 f0                     	movl	-16(%ebp), %eax
  202f30: 01 d0                        	addl	%edx, %eax
  202f32: 8a 00                        	movb	(%eax), %al
  202f34: 84 c0                        	testb	%al, %al
  202f36: 74 1c                        	je	28 <_ZN9SuperPong5startEv+0x8e>
  202f38: 8b 55 f4                     	movl	-12(%ebp), %edx
  202f3b: 8b 45 f0                     	movl	-16(%ebp), %eax
  202f3e: 01 d0                        	addl	%edx, %eax
  202f40: 8a 00                        	movb	(%eax), %al
  202f42: 8d 8d f0 fe ff ff            	leal	-272(%ebp), %ecx
  202f48: 8b 55 f4                     	movl	-12(%ebp), %edx
  202f4b: 01 ca                        	addl	%ecx, %edx
  202f4d: 88 02                        	movb	%al, (%edx)
  202f4f: ff 45 f4                     	incl	-12(%ebp)
  202f52: eb cd                        	jmp	-51 <_ZN9SuperPong5startEv+0x5b>
  202f54: 8d 95 f0 fe ff ff            	leal	-272(%ebp), %edx
  202f5a: 8b 45 f4                     	movl	-12(%ebp), %eax
  202f5d: 01 d0                        	addl	%edx, %eax
  202f5f: c6 00 00                     	movb	$0, (%eax)
  202f62: c7 45 f4 00 00 00 00         	movl	$0, -12(%ebp)
  202f69: 8d 95 f0 fe ff ff            	leal	-272(%ebp), %edx
  202f6f: 8b 45 f4                     	movl	-12(%ebp), %eax
  202f72: 01 d0                        	addl	%edx, %eax
  202f74: 8a 00                        	movb	(%eax), %al
  202f76: 84 c0                        	testb	%al, %al
  202f78: 0f 84 83 00 00 00            	je	131 <_ZN9SuperPong5startEv+0x13b>
  202f7e: 8d 95 f0 fe ff ff            	leal	-272(%ebp), %edx
  202f84: 8b 45 f4                     	movl	-12(%ebp), %eax
  202f87: 01 d0                        	addl	%edx, %eax
  202f89: 8a 00                        	movb	(%eax), %al
  202f8b: 0f be c0                     	movsbl	%al, %eax
  202f8e: 83 f8 78                     	cmpl	$120, %eax
  202f91: 74 2e                        	je	46 <_ZN9SuperPong5startEv+0xfb>
  202f93: 83 f8 78                     	cmpl	$120, %eax
  202f96: 7f 61                        	jg	97 <_ZN9SuperPong5startEv+0x133>
  202f98: 83 f8 73                     	cmpl	$115, %eax
  202f9b: 74 11                        	je	17 <_ZN9SuperPong5startEv+0xe8>
  202f9d: 83 f8 73                     	cmpl	$115, %eax
  202fa0: 7f 57                        	jg	87 <_ZN9SuperPong5startEv+0x133>
  202fa2: 83 f8 6a                     	cmpl	$106, %eax
  202fa5: 74 2d                        	je	45 <_ZN9SuperPong5startEv+0x10e>
  202fa7: 83 f8 6e                     	cmpl	$110, %eax
  202faa: 74 3b                        	je	59 <_ZN9SuperPong5startEv+0x121>
  202fac: eb 4b                        	jmp	75 <_ZN9SuperPong5startEv+0x133>
  202fae: 8b 45 08                     	movl	8(%ebp), %eax
  202fb1: 83 ec 08                     	subl	$8, %esp
  202fb4: 6a 01                        	pushl	$1
  202fb6: 50                           	pushl	%eax
  202fb7: e8 0e 05 00 00               	calll	1294 <_ZN6Grille14monterRaquetteEi>
  202fbc: 83 c4 10                     	addl	$16, %esp
  202fbf: eb 38                        	jmp	56 <_ZN9SuperPong5startEv+0x133>
  202fc1: 8b 45 08                     	movl	8(%ebp), %eax
  202fc4: 83 ec 08                     	subl	$8, %esp
  202fc7: 6a 01                        	pushl	$1
  202fc9: 50                           	pushl	%eax
  202fca: e8 83 08 00 00               	calll	2179 <_ZN6Grille17descendreRaquetteEi>
  202fcf: 83 c4 10                     	addl	$16, %esp
  202fd2: eb 25                        	jmp	37 <_ZN9SuperPong5startEv+0x133>
  202fd4: 8b 45 08                     	movl	8(%ebp), %eax
  202fd7: 83 ec 08                     	subl	$8, %esp
  202fda: 6a 02                        	pushl	$2
  202fdc: 50                           	pushl	%eax
  202fdd: e8 e8 04 00 00               	calll	1256 <_ZN6Grille14monterRaquetteEi>
  202fe2: 83 c4 10                     	addl	$16, %esp
  202fe5: eb 12                        	jmp	18 <_ZN9SuperPong5startEv+0x133>
  202fe7: 8b 45 08                     	movl	8(%ebp), %eax
  202fea: 83 ec 08                     	subl	$8, %esp
  202fed: 6a 02                        	pushl	$2
  202fef: 50                           	pushl	%eax
  202ff0: e8 5d 08 00 00               	calll	2141 <_ZN6Grille17descendreRaquetteEi>
  202ff5: 83 c4 10                     	addl	$16, %esp
  202ff8: 90                           	nop
  202ff9: ff 45 f4                     	incl	-12(%ebp)
  202ffc: e9 68 ff ff ff               	jmp	-152 <_ZN9SuperPong5startEv+0xa3>
  203001: 90                           	nop
  203002: c9                           	leave
  203003: c3                           	retl

00203004 Grille::Grille():
  203004: 55                           	pushl	%ebp
  203005: 89 e5                        	movl	%esp, %ebp
  203007: 83 ec 08                     	subl	$8, %esp
  20300a: 8b 45 08                     	movl	8(%ebp), %eax
  20300d: 05 00 f4 01 00               	addl	$128000, %eax
  203012: 83 ec 0c                     	subl	$12, %esp
  203015: 50                           	pushl	%eax
  203016: e8 c5 0d 00 00               	calll	3525 <_ZN8RaquetteC2Ev>
  20301b: 83 c4 10                     	addl	$16, %esp
  20301e: 8b 45 08                     	movl	8(%ebp), %eax
  203021: 05 0c f4 01 00               	addl	$128012, %eax
  203026: 83 ec 0c                     	subl	$12, %esp
  203029: 50                           	pushl	%eax
  20302a: e8 b1 0d 00 00               	calll	3505 <_ZN8RaquetteC2Ev>
  20302f: 83 c4 10                     	addl	$16, %esp
  203032: 90                           	nop
  203033: c9                           	leave
  203034: c3                           	retl
  203035: 90                           	nop

00203036 Grille::Grille(Ecran*):
  203036: 55                           	pushl	%ebp
  203037: 89 e5                        	movl	%esp, %ebp
  203039: 83 ec 18                     	subl	$24, %esp
  20303c: 8b 45 08                     	movl	8(%ebp), %eax
  20303f: 05 00 f4 01 00               	addl	$128000, %eax
  203044: 83 ec 0c                     	subl	$12, %esp
  203047: 50                           	pushl	%eax
  203048: e8 93 0d 00 00               	calll	3475 <_ZN8RaquetteC2Ev>
  20304d: 83 c4 10                     	addl	$16, %esp
  203050: 8b 45 08                     	movl	8(%ebp), %eax
  203053: 05 0c f4 01 00               	addl	$128012, %eax
  203058: 83 ec 0c                     	subl	$12, %esp
  20305b: 50                           	pushl	%eax
  20305c: e8 7f 0d 00 00               	calll	3455 <_ZN8RaquetteC2Ev>
  203061: 83 c4 10                     	addl	$16, %esp
  203064: c7 45 f4 00 00 00 00         	movl	$0, -12(%ebp)
  20306b: 83 7d f4 18                  	cmpl	$24, -12(%ebp)
  20306f: 0f 8f 0a 02 00 00            	jg	522 <_ZN6GrilleC2EP5Ecran+0x249>
  203075: c7 45 f0 00 00 00 00         	movl	$0, -16(%ebp)
  20307c: 83 7d f0 4f                  	cmpl	$79, -16(%ebp)
  203080: 0f 8f f1 01 00 00            	jg	497 <_ZN6GrilleC2EP5Ecran+0x241>
  203086: 8b 45 f0                     	movl	-16(%ebp), %eax
  203089: 89 c2                        	movl	%eax, %edx
  20308b: c1 e2 02                     	shll	$2, %edx
  20308e: 01 c2                        	addl	%eax, %edx
  203090: 8d 04 95 00 00 00 00         	leal	(,%edx,4), %eax
  203097: 89 c2                        	movl	%eax, %edx
  203099: 8b 4d f4                     	movl	-12(%ebp), %ecx
  20309c: 89 c8                        	movl	%ecx, %eax
  20309e: c1 e0 02                     	shll	$2, %eax
  2030a1: 01 c8                        	addl	%ecx, %eax
  2030a3: 8d 0c 85 00 00 00 00         	leal	(,%eax,4), %ecx
  2030aa: 01 c8                        	addl	%ecx, %eax
  2030ac: c1 e0 06                     	shll	$6, %eax
  2030af: 01 c2                        	addl	%eax, %edx
  2030b1: 8b 45 08                     	movl	8(%ebp), %eax
  2030b4: 01 d0                        	addl	%edx, %eax
  2030b6: 83 ec 04                     	subl	$4, %esp
  2030b9: ff 75 f0                     	pushl	-16(%ebp)
  2030bc: ff 75 f4                     	pushl	-12(%ebp)
  2030bf: 50                           	pushl	%eax
  2030c0: e8 a1 f6 ff ff               	calll	-2399 <_ZN4Case4initEii>
  2030c5: 83 c4 10                     	addl	$16, %esp
  2030c8: 8b 45 f0                     	movl	-16(%ebp), %eax
  2030cb: 89 c2                        	movl	%eax, %edx
  2030cd: c1 e2 02                     	shll	$2, %edx
  2030d0: 01 c2                        	addl	%eax, %edx
  2030d2: 8d 04 95 00 00 00 00         	leal	(,%edx,4), %eax
  2030d9: 89 c2                        	movl	%eax, %edx
  2030db: 8b 4d f4                     	movl	-12(%ebp), %ecx
  2030de: 89 c8                        	movl	%ecx, %eax
  2030e0: c1 e0 02                     	shll	$2, %eax
  2030e3: 01 c8                        	addl	%ecx, %eax
  2030e5: 8d 0c 85 00 00 00 00         	leal	(,%eax,4), %ecx
  2030ec: 01 c8                        	addl	%ecx, %eax
  2030ee: c1 e0 06                     	shll	$6, %eax
  2030f1: 01 c2                        	addl	%eax, %edx
  2030f3: 8b 45 08                     	movl	8(%ebp), %eax
  2030f6: 01 d0                        	addl	%edx, %eax
  2030f8: 83 ec 08                     	subl	$8, %esp
  2030fb: ff 75 0c                     	pushl	12(%ebp)
  2030fe: 50                           	pushl	%eax
  2030ff: e8 98 f6 ff ff               	calll	-2408 <_ZN4Case8setEcranEP5Ecran>
  203104: 83 c4 10                     	addl	$16, %esp
  203107: 83 7d f4 00                  	cmpl	$0, -12(%ebp)
  20310b: 74 06                        	je	6 <_ZN6GrilleC2EP5Ecran+0xdd>
  20310d: 83 7d f4 18                  	cmpl	$24, -12(%ebp)
  203111: 75 3c                        	jne	60 <_ZN6GrilleC2EP5Ecran+0x119>
  203113: 8b 45 f0                     	movl	-16(%ebp), %eax
  203116: 89 c2                        	movl	%eax, %edx
  203118: c1 e2 02                     	shll	$2, %edx
  20311b: 01 c2                        	addl	%eax, %edx
  20311d: 8d 04 95 00 00 00 00         	leal	(,%edx,4), %eax
  203124: 89 c2                        	movl	%eax, %edx
  203126: 8b 4d f4                     	movl	-12(%ebp), %ecx
  203129: 89 c8                        	movl	%ecx, %eax
  20312b: c1 e0 02                     	shll	$2, %eax
  20312e: 01 c8                        	addl	%ecx, %eax
  203130: 8d 0c 85 00 00 00 00         	leal	(,%eax,4), %ecx
  203137: 01 c8                        	addl	%ecx, %eax
  203139: c1 e0 06                     	shll	$6, %eax
  20313c: 01 c2                        	addl	%eax, %edx
  20313e: 8b 45 08                     	movl	8(%ebp), %eax
  203141: 01 d0                        	addl	%edx, %eax
  203143: 83 ec 0c                     	subl	$12, %esp
  203146: 50                           	pushl	%eax
  203147: e8 88 f6 ff ff               	calll	-2424 <_ZN4Case11setCaseBordEv>
  20314c: 83 c4 10                     	addl	$16, %esp
  20314f: 83 7d f0 00                  	cmpl	$0, -16(%ebp)
  203153: 0f 85 86 00 00 00            	jne	134 <_ZN6GrilleC2EP5Ecran+0x1a9>
  203159: 83 7d f4 08                  	cmpl	$8, -12(%ebp)
  20315d: 7e 44                        	jle	68 <_ZN6GrilleC2EP5Ecran+0x16d>
  20315f: 83 7d f4 0f                  	cmpl	$15, -12(%ebp)
  203163: 7f 3e                        	jg	62 <_ZN6GrilleC2EP5Ecran+0x16d>
  203165: 8b 45 f0                     	movl	-16(%ebp), %eax
  203168: 89 c2                        	movl	%eax, %edx
  20316a: c1 e2 02                     	shll	$2, %edx
  20316d: 01 c2                        	addl	%eax, %edx
  20316f: 8d 04 95 00 00 00 00         	leal	(,%edx,4), %eax
  203176: 89 c2                        	movl	%eax, %edx
  203178: 8b 4d f4                     	movl	-12(%ebp), %ecx
  20317b: 89 c8                        	movl	%ecx, %eax
  20317d: c1 e0 02                     	shll	$2, %eax
  203180: 01 c8                        	addl	%ecx, %eax
  203182: 8d 0c 85 00 00 00 00         	leal	(,%eax,4), %ecx
  203189: 01 c8                        	addl	%ecx, %eax
  20318b: c1 e0 06                     	shll	$6, %eax
  20318e: 01 c2                        	addl	%eax, %edx
  203190: 8b 45 08                     	movl	8(%ebp), %eax
  203193: 01 d0                        	addl	%edx, %eax
  203195: 83 ec 0c                     	subl	$12, %esp
  203198: 50                           	pushl	%eax
  203199: e8 26 f6 ff ff               	calll	-2522 <_ZN4Case11setCaseTrouEv>
  20319e: 83 c4 10                     	addl	$16, %esp
  2031a1: eb 3c                        	jmp	60 <_ZN6GrilleC2EP5Ecran+0x1a9>
  2031a3: 8b 45 f0                     	movl	-16(%ebp), %eax
  2031a6: 89 c2                        	movl	%eax, %edx
  2031a8: c1 e2 02                     	shll	$2, %edx
  2031ab: 01 c2                        	addl	%eax, %edx
  2031ad: 8d 04 95 00 00 00 00         	leal	(,%edx,4), %eax
  2031b4: 89 c2                        	movl	%eax, %edx
  2031b6: 8b 4d f4                     	movl	-12(%ebp), %ecx
  2031b9: 89 c8                        	movl	%ecx, %eax
  2031bb: c1 e0 02                     	shll	$2, %eax
  2031be: 01 c8                        	addl	%ecx, %eax
  2031c0: 8d 0c 85 00 00 00 00         	leal	(,%eax,4), %ecx
  2031c7: 01 c8                        	addl	%ecx, %eax
  2031c9: c1 e0 06                     	shll	$6, %eax
  2031cc: 01 c2                        	addl	%eax, %edx
  2031ce: 8b 45 08                     	movl	8(%ebp), %eax
  2031d1: 01 d0                        	addl	%edx, %eax
  2031d3: 83 ec 0c                     	subl	$12, %esp
  2031d6: 50                           	pushl	%eax
  2031d7: e8 f8 f5 ff ff               	calll	-2568 <_ZN4Case11setCaseBordEv>
  2031dc: 83 c4 10                     	addl	$16, %esp
  2031df: 83 7d f0 4f                  	cmpl	$79, -16(%ebp)
  2031e3: 0f 85 86 00 00 00            	jne	134 <_ZN6GrilleC2EP5Ecran+0x239>
  2031e9: 83 7d f4 08                  	cmpl	$8, -12(%ebp)
  2031ed: 7e 44                        	jle	68 <_ZN6GrilleC2EP5Ecran+0x1fd>
  2031ef: 83 7d f4 0f                  	cmpl	$15, -12(%ebp)
  2031f3: 7f 3e                        	jg	62 <_ZN6GrilleC2EP5Ecran+0x1fd>
  2031f5: 8b 45 f0                     	movl	-16(%ebp), %eax
  2031f8: 89 c2                        	movl	%eax, %edx
  2031fa: c1 e2 02                     	shll	$2, %edx
  2031fd: 01 c2                        	addl	%eax, %edx
  2031ff: 8d 04 95 00 00 00 00         	leal	(,%edx,4), %eax
  203206: 89 c2                        	movl	%eax, %edx
  203208: 8b 4d f4                     	movl	-12(%ebp), %ecx
  20320b: 89 c8                        	movl	%ecx, %eax
  20320d: c1 e0 02                     	shll	$2, %eax
  203210: 01 c8                        	addl	%ecx, %eax
  203212: 8d 0c 85 00 00 00 00         	leal	(,%eax,4), %ecx
  203219: 01 c8                        	addl	%ecx, %eax
  20321b: c1 e0 06                     	shll	$6, %eax
  20321e: 01 c2                        	addl	%eax, %edx
  203220: 8b 45 08                     	movl	8(%ebp), %eax
  203223: 01 d0                        	addl	%edx, %eax
  203225: 83 ec 0c                     	subl	$12, %esp
  203228: 50                           	pushl	%eax
  203229: e8 96 f5 ff ff               	calll	-2666 <_ZN4Case11setCaseTrouEv>
  20322e: 83 c4 10                     	addl	$16, %esp
  203231: eb 3c                        	jmp	60 <_ZN6GrilleC2EP5Ecran+0x239>
  203233: 8b 45 f0                     	movl	-16(%ebp), %eax
  203236: 89 c2                        	movl	%eax, %edx
  203238: c1 e2 02                     	shll	$2, %edx
  20323b: 01 c2                        	addl	%eax, %edx
  20323d: 8d 04 95 00 00 00 00         	leal	(,%edx,4), %eax
  203244: 89 c2                        	movl	%eax, %edx
  203246: 8b 4d f4                     	movl	-12(%ebp), %ecx
  203249: 89 c8                        	movl	%ecx, %eax
  20324b: c1 e0 02                     	shll	$2, %eax
  20324e: 01 c8                        	addl	%ecx, %eax
  203250: 8d 0c 85 00 00 00 00         	leal	(,%eax,4), %ecx
  203257: 01 c8                        	addl	%ecx, %eax
  203259: c1 e0 06                     	shll	$6, %eax
  20325c: 01 c2                        	addl	%eax, %edx
  20325e: 8b 45 08                     	movl	8(%ebp), %eax
  203261: 01 d0                        	addl	%edx, %eax
  203263: 83 ec 0c                     	subl	$12, %esp
  203266: 50                           	pushl	%eax
  203267: e8 68 f5 ff ff               	calll	-2712 <_ZN4Case11setCaseBordEv>
  20326c: 83 c4 10                     	addl	$16, %esp
  20326f: ff 45 f0                     	incl	-16(%ebp)
  203272: e9 05 fe ff ff               	jmp	-507 <_ZN6GrilleC2EP5Ecran+0x46>
  203277: ff 45 f4                     	incl	-12(%ebp)
  20327a: e9 ec fd ff ff               	jmp	-532 <_ZN6GrilleC2EP5Ecran+0x35>
  20327f: 83 ec 04                     	subl	$4, %esp
  203282: 6a 04                        	pushl	$4
  203284: 6a 03                        	pushl	$3
  203286: ff 75 08                     	pushl	8(%ebp)
  203289: e8 4c 09 00 00               	calll	2380 <_ZN6Grille12initRaquetteEii>
  20328e: 83 c4 10                     	addl	$16, %esp
  203291: 90                           	nop
  203292: c9                           	leave
  203293: c3                           	retl

00203294 Grille::init(Ecran*):
  203294: 55                           	pushl	%ebp
  203295: 89 e5                        	movl	%esp, %ebp
  203297: 83 ec 18                     	subl	$24, %esp
  20329a: c7 45 f4 00 00 00 00         	movl	$0, -12(%ebp)
  2032a1: 83 7d f4 18                  	cmpl	$24, -12(%ebp)
  2032a5: 0f 8f 0a 02 00 00            	jg	522 <_ZN6Grille4initEP5Ecran+0x221>
  2032ab: c7 45 f0 00 00 00 00         	movl	$0, -16(%ebp)
  2032b2: 83 7d f0 4f                  	cmpl	$79, -16(%ebp)
  2032b6: 0f 8f f1 01 00 00            	jg	497 <_ZN6Grille4initEP5Ecran+0x219>
  2032bc: 8b 45 f0                     	movl	-16(%ebp), %eax
  2032bf: 89 c2                        	movl	%eax, %edx
  2032c1: c1 e2 02                     	shll	$2, %edx
  2032c4: 01 c2                        	addl	%eax, %edx
  2032c6: 8d 04 95 00 00 00 00         	leal	(,%edx,4), %eax
  2032cd: 89 c2                        	movl	%eax, %edx
  2032cf: 8b 4d f4                     	movl	-12(%ebp), %ecx
  2032d2: 89 c8                        	movl	%ecx, %eax
  2032d4: c1 e0 02                     	shll	$2, %eax
  2032d7: 01 c8                        	addl	%ecx, %eax
  2032d9: 8d 0c 85 00 00 00 00         	leal	(,%eax,4), %ecx
  2032e0: 01 c8                        	addl	%ecx, %eax
  2032e2: c1 e0 06                     	shll	$6, %eax
  2032e5: 01 c2                        	addl	%eax, %edx
  2032e7: 8b 45 08                     	movl	8(%ebp), %eax
  2032ea: 01 d0                        	addl	%edx, %eax
  2032ec: 83 ec 04                     	subl	$4, %esp
  2032ef: ff 75 f0                     	pushl	-16(%ebp)
  2032f2: ff 75 f4                     	pushl	-12(%ebp)
  2032f5: 50                           	pushl	%eax
  2032f6: e8 6b f4 ff ff               	calll	-2965 <_ZN4Case4initEii>
  2032fb: 83 c4 10                     	addl	$16, %esp
  2032fe: 8b 45 f0                     	movl	-16(%ebp), %eax
  203301: 89 c2                        	movl	%eax, %edx
  203303: c1 e2 02                     	shll	$2, %edx
  203306: 01 c2                        	addl	%eax, %edx
  203308: 8d 04 95 00 00 00 00         	leal	(,%edx,4), %eax
  20330f: 89 c2                        	movl	%eax, %edx
  203311: 8b 4d f4                     	movl	-12(%ebp), %ecx
  203314: 89 c8                        	movl	%ecx, %eax
  203316: c1 e0 02                     	shll	$2, %eax
  203319: 01 c8                        	addl	%ecx, %eax
  20331b: 8d 0c 85 00 00 00 00         	leal	(,%eax,4), %ecx
  203322: 01 c8                        	addl	%ecx, %eax
  203324: c1 e0 06                     	shll	$6, %eax
  203327: 01 c2                        	addl	%eax, %edx
  203329: 8b 45 08                     	movl	8(%ebp), %eax
  20332c: 01 d0                        	addl	%edx, %eax
  20332e: 83 ec 08                     	subl	$8, %esp
  203331: ff 75 0c                     	pushl	12(%ebp)
  203334: 50                           	pushl	%eax
  203335: e8 62 f4 ff ff               	calll	-2974 <_ZN4Case8setEcranEP5Ecran>
  20333a: 83 c4 10                     	addl	$16, %esp
  20333d: 83 7d f4 00                  	cmpl	$0, -12(%ebp)
  203341: 74 06                        	je	6 <_ZN6Grille4initEP5Ecran+0xb5>
  203343: 83 7d f4 18                  	cmpl	$24, -12(%ebp)
  203347: 75 3c                        	jne	60 <_ZN6Grille4initEP5Ecran+0xf1>
  203349: 8b 45 f0                     	movl	-16(%ebp), %eax
  20334c: 89 c2                        	movl	%eax, %edx
  20334e: c1 e2 02                     	shll	$2, %edx
  203351: 01 c2                        	addl	%eax, %edx
  203353: 8d 04 95 00 00 00 00         	leal	(,%edx,4), %eax
  20335a: 89 c2                        	movl	%eax, %edx
  20335c: 8b 4d f4                     	movl	-12(%ebp), %ecx
  20335f: 89 c8                        	movl	%ecx, %eax
  203361: c1 e0 02                     	shll	$2, %eax
  203364: 01 c8                        	addl	%ecx, %eax
  203366: 8d 0c 85 00 00 00 00         	leal	(,%eax,4), %ecx
  20336d: 01 c8                        	addl	%ecx, %eax
  20336f: c1 e0 06                     	shll	$6, %eax
  203372: 01 c2                        	addl	%eax, %edx
  203374: 8b 45 08                     	movl	8(%ebp), %eax
  203377: 01 d0                        	addl	%edx, %eax
  203379: 83 ec 0c                     	subl	$12, %esp
  20337c: 50                           	pushl	%eax
  20337d: e8 52 f4 ff ff               	calll	-2990 <_ZN4Case11setCaseBordEv>
  203382: 83 c4 10                     	addl	$16, %esp
  203385: 83 7d f0 00                  	cmpl	$0, -16(%ebp)
  203389: 0f 85 86 00 00 00            	jne	134 <_ZN6Grille4initEP5Ecran+0x181>
  20338f: 83 7d f4 08                  	cmpl	$8, -12(%ebp)
  203393: 7e 44                        	jle	68 <_ZN6Grille4initEP5Ecran+0x145>
  203395: 83 7d f4 0f                  	cmpl	$15, -12(%ebp)
  203399: 7f 3e                        	jg	62 <_ZN6Grille4initEP5Ecran+0x145>
  20339b: 8b 45 f0                     	movl	-16(%ebp), %eax
  20339e: 89 c2                        	movl	%eax, %edx
  2033a0: c1 e2 02                     	shll	$2, %edx
  2033a3: 01 c2                        	addl	%eax, %edx
  2033a5: 8d 04 95 00 00 00 00         	leal	(,%edx,4), %eax
  2033ac: 89 c2                        	movl	%eax, %edx
  2033ae: 8b 4d f4                     	movl	-12(%ebp), %ecx
  2033b1: 89 c8                        	movl	%ecx, %eax
  2033b3: c1 e0 02                     	shll	$2, %eax
  2033b6: 01 c8                        	addl	%ecx, %eax
  2033b8: 8d 0c 85 00 00 00 00         	leal	(,%eax,4), %ecx
  2033bf: 01 c8                        	addl	%ecx, %eax
  2033c1: c1 e0 06                     	shll	$6, %eax
  2033c4: 01 c2                        	addl	%eax, %edx
  2033c6: 8b 45 08                     	movl	8(%ebp), %eax
  2033c9: 01 d0                        	addl	%edx, %eax
  2033cb: 83 ec 0c                     	subl	$12, %esp
  2033ce: 50                           	pushl	%eax
  2033cf: e8 f0 f3 ff ff               	calll	-3088 <_ZN4Case11setCaseTrouEv>
  2033d4: 83 c4 10                     	addl	$16, %esp
  2033d7: eb 3c                        	jmp	60 <_ZN6Grille4initEP5Ecran+0x181>
  2033d9: 8b 45 f0                     	movl	-16(%ebp), %eax
  2033dc: 89 c2                        	movl	%eax, %edx
  2033de: c1 e2 02                     	shll	$2, %edx
  2033e1: 01 c2                        	addl	%eax, %edx
  2033e3: 8d 04 95 00 00 00 00         	leal	(,%edx,4), %eax
  2033ea: 89 c2                        	movl	%eax, %edx
  2033ec: 8b 4d f4                     	movl	-12(%ebp), %ecx
  2033ef: 89 c8                        	movl	%ecx, %eax
  2033f1: c1 e0 02                     	shll	$2, %eax
  2033f4: 01 c8                        	addl	%ecx, %eax
  2033f6: 8d 0c 85 00 00 00 00         	leal	(,%eax,4), %ecx
  2033fd: 01 c8                        	addl	%ecx, %eax
  2033ff: c1 e0 06                     	shll	$6, %eax
  203402: 01 c2                        	addl	%eax, %edx
  203404: 8b 45 08                     	movl	8(%ebp), %eax
  203407: 01 d0                        	addl	%edx, %eax
  203409: 83 ec 0c                     	subl	$12, %esp
  20340c: 50                           	pushl	%eax
  20340d: e8 c2 f3 ff ff               	calll	-3134 <_ZN4Case11setCaseBordEv>
  203412: 83 c4 10                     	addl	$16, %esp
  203415: 83 7d f0 4f                  	cmpl	$79, -16(%ebp)
  203419: 0f 85 86 00 00 00            	jne	134 <_ZN6Grille4initEP5Ecran+0x211>
  20341f: 83 7d f4 08                  	cmpl	$8, -12(%ebp)
  203423: 7e 44                        	jle	68 <_ZN6Grille4initEP5Ecran+0x1d5>
  203425: 83 7d f4 0f                  	cmpl	$15, -12(%ebp)
  203429: 7f 3e                        	jg	62 <_ZN6Grille4initEP5Ecran+0x1d5>
  20342b: 8b 45 f0                     	movl	-16(%ebp), %eax
  20342e: 89 c2                        	movl	%eax, %edx
  203430: c1 e2 02                     	shll	$2, %edx
  203433: 01 c2                        	addl	%eax, %edx
  203435: 8d 04 95 00 00 00 00         	leal	(,%edx,4), %eax
  20343c: 89 c2                        	movl	%eax, %edx
  20343e: 8b 4d f4                     	movl	-12(%ebp), %ecx
  203441: 89 c8                        	movl	%ecx, %eax
  203443: c1 e0 02                     	shll	$2, %eax
  203446: 01 c8                        	addl	%ecx, %eax
  203448: 8d 0c 85 00 00 00 00         	leal	(,%eax,4), %ecx
  20344f: 01 c8                        	addl	%ecx, %eax
  203451: c1 e0 06                     	shll	$6, %eax
  203454: 01 c2                        	addl	%eax, %edx
  203456: 8b 45 08                     	movl	8(%ebp), %eax
  203459: 01 d0                        	addl	%edx, %eax
  20345b: 83 ec 0c                     	subl	$12, %esp
  20345e: 50                           	pushl	%eax
  20345f: e8 60 f3 ff ff               	calll	-3232 <_ZN4Case11setCaseTrouEv>
  203464: 83 c4 10                     	addl	$16, %esp
  203467: eb 3c                        	jmp	60 <_ZN6Grille4initEP5Ecran+0x211>
  203469: 8b 45 f0                     	movl	-16(%ebp), %eax
  20346c: 89 c2                        	movl	%eax, %edx
  20346e: c1 e2 02                     	shll	$2, %edx
  203471: 01 c2                        	addl	%eax, %edx
  203473: 8d 04 95 00 00 00 00         	leal	(,%edx,4), %eax
  20347a: 89 c2                        	movl	%eax, %edx
  20347c: 8b 4d f4                     	movl	-12(%ebp), %ecx
  20347f: 89 c8                        	movl	%ecx, %eax
  203481: c1 e0 02                     	shll	$2, %eax
  203484: 01 c8                        	addl	%ecx, %eax
  203486: 8d 0c 85 00 00 00 00         	leal	(,%eax,4), %ecx
  20348d: 01 c8                        	addl	%ecx, %eax
  20348f: c1 e0 06                     	shll	$6, %eax
  203492: 01 c2                        	addl	%eax, %edx
  203494: 8b 45 08                     	movl	8(%ebp), %eax
  203497: 01 d0                        	addl	%edx, %eax
  203499: 83 ec 0c                     	subl	$12, %esp
  20349c: 50                           	pushl	%eax
  20349d: e8 32 f3 ff ff               	calll	-3278 <_ZN4Case11setCaseBordEv>
  2034a2: 83 c4 10                     	addl	$16, %esp
  2034a5: ff 45 f0                     	incl	-16(%ebp)
  2034a8: e9 05 fe ff ff               	jmp	-507 <_ZN6Grille4initEP5Ecran+0x1e>
  2034ad: ff 45 f4                     	incl	-12(%ebp)
  2034b0: e9 ec fd ff ff               	jmp	-532 <_ZN6Grille4initEP5Ecran+0xd>
  2034b5: 83 ec 04                     	subl	$4, %esp
  2034b8: 6a 04                        	pushl	$4
  2034ba: 6a 03                        	pushl	$3
  2034bc: ff 75 08                     	pushl	8(%ebp)
  2034bf: e8 16 07 00 00               	calll	1814 <_ZN6Grille12initRaquetteEii>
  2034c4: 83 c4 10                     	addl	$16, %esp
  2034c7: 90                           	nop
  2034c8: c9                           	leave
  2034c9: c3                           	retl

002034ca Grille::monterRaquette(int):
  2034ca: 55                           	pushl	%ebp
  2034cb: 89 e5                        	movl	%esp, %ebp
  2034cd: 53                           	pushl	%ebx
  2034ce: 83 ec 04                     	subl	$4, %esp
  2034d1: 83 7d 0c 01                  	cmpl	$1, 12(%ebp)
  2034d5: 0f 85 bb 01 00 00            	jne	443 <_ZN6Grille14monterRaquetteEi+0x1cc>
  2034db: 8b 45 08                     	movl	8(%ebp), %eax
  2034de: 05 00 f4 01 00               	addl	$128000, %eax
  2034e3: 83 ec 0c                     	subl	$12, %esp
  2034e6: 50                           	pushl	%eax
  2034e7: e8 4a 09 00 00               	calll	2378 <_ZN8Raquette7getHautEv>
  2034ec: 83 c4 10                     	addl	$16, %esp
  2034ef: 83 f8 01                     	cmpl	$1, %eax
  2034f2: 0f 9f c0                     	setg	%al
  2034f5: 84 c0                        	testb	%al, %al
  2034f7: 0f 84 4f 03 00 00            	je	847 <_ZN6Grille14monterRaquetteEi+0x382>
  2034fd: 8b 45 08                     	movl	8(%ebp), %eax
  203500: 05 00 f4 01 00               	addl	$128000, %eax
  203505: 83 ec 0c                     	subl	$12, %esp
  203508: 50                           	pushl	%eax
  203509: e8 1c 09 00 00               	calll	2332 <_ZN8Raquette6getBasEv>
  20350e: 83 c4 10                     	addl	$16, %esp
  203511: 89 c3                        	movl	%eax, %ebx
  203513: 8b 45 08                     	movl	8(%ebp), %eax
  203516: 05 00 f4 01 00               	addl	$128000, %eax
  20351b: 83 ec 0c                     	subl	$12, %esp
  20351e: 50                           	pushl	%eax
  20351f: e8 fc 08 00 00               	calll	2300 <_ZN8Raquette4getYEv>
  203524: 83 c4 10                     	addl	$16, %esp
  203527: 89 c2                        	movl	%eax, %edx
  203529: c1 e2 02                     	shll	$2, %edx
  20352c: 01 c2                        	addl	%eax, %edx
  20352e: 8d 04 95 00 00 00 00         	leal	(,%edx,4), %eax
  203535: 89 c2                        	movl	%eax, %edx
  203537: 89 d8                        	movl	%ebx, %eax
  203539: c1 e0 02                     	shll	$2, %eax
  20353c: 01 d8                        	addl	%ebx, %eax
  20353e: 8d 0c 85 00 00 00 00         	leal	(,%eax,4), %ecx
  203545: 01 c8                        	addl	%ecx, %eax
  203547: c1 e0 06                     	shll	$6, %eax
  20354a: 01 c2                        	addl	%eax, %edx
  20354c: 8b 45 08                     	movl	8(%ebp), %eax
  20354f: 01 d0                        	addl	%edx, %eax
  203551: 83 ec 0c                     	subl	$12, %esp
  203554: 50                           	pushl	%eax
  203555: e8 5a f2 ff ff               	calll	-3494 <_ZN4Case11setCaseVideEv>
  20355a: 83 c4 10                     	addl	$16, %esp
  20355d: 8b 45 08                     	movl	8(%ebp), %eax
  203560: 05 00 f4 01 00               	addl	$128000, %eax
  203565: 83 ec 0c                     	subl	$12, %esp
  203568: 50                           	pushl	%eax
  203569: e8 bc 08 00 00               	calll	2236 <_ZN8Raquette6getBasEv>
  20356e: 83 c4 10                     	addl	$16, %esp
  203571: 89 c3                        	movl	%eax, %ebx
  203573: 8b 45 08                     	movl	8(%ebp), %eax
  203576: 05 00 f4 01 00               	addl	$128000, %eax
  20357b: 83 ec 0c                     	subl	$12, %esp
  20357e: 50                           	pushl	%eax
  20357f: e8 9c 08 00 00               	calll	2204 <_ZN8Raquette4getYEv>
  203584: 83 c4 10                     	addl	$16, %esp
  203587: 89 c2                        	movl	%eax, %edx
  203589: c1 e2 02                     	shll	$2, %edx
  20358c: 01 c2                        	addl	%eax, %edx
  20358e: 8d 04 95 00 00 00 00         	leal	(,%edx,4), %eax
  203595: 89 c2                        	movl	%eax, %edx
  203597: 89 d8                        	movl	%ebx, %eax
  203599: c1 e0 02                     	shll	$2, %eax
  20359c: 01 d8                        	addl	%ebx, %eax
  20359e: 8d 0c 85 00 00 00 00         	leal	(,%eax,4), %ecx
  2035a5: 01 c8                        	addl	%ecx, %eax
  2035a7: c1 e0 06                     	shll	$6, %eax
  2035aa: 01 c2                        	addl	%eax, %edx
  2035ac: 8b 45 08                     	movl	8(%ebp), %eax
  2035af: 01 d0                        	addl	%edx, %eax
  2035b1: 83 ec 0c                     	subl	$12, %esp
  2035b4: 50                           	pushl	%eax
  2035b5: e8 2a f2 ff ff               	calll	-3542 <_ZN4Case5paintEv>
  2035ba: 83 c4 10                     	addl	$16, %esp
  2035bd: 8b 45 08                     	movl	8(%ebp), %eax
  2035c0: 05 00 f4 01 00               	addl	$128000, %eax
  2035c5: 83 ec 0c                     	subl	$12, %esp
  2035c8: 50                           	pushl	%eax
  2035c9: e8 74 08 00 00               	calll	2164 <_ZN8Raquette6monterEv>
  2035ce: 83 c4 10                     	addl	$16, %esp
  2035d1: 8b 45 08                     	movl	8(%ebp), %eax
  2035d4: 05 00 f4 01 00               	addl	$128000, %eax
  2035d9: 83 ec 0c                     	subl	$12, %esp
  2035dc: 50                           	pushl	%eax
  2035dd: e8 54 08 00 00               	calll	2132 <_ZN8Raquette7getHautEv>
  2035e2: 83 c4 10                     	addl	$16, %esp
  2035e5: 89 c3                        	movl	%eax, %ebx
  2035e7: 8b 45 08                     	movl	8(%ebp), %eax
  2035ea: 05 00 f4 01 00               	addl	$128000, %eax
  2035ef: 83 ec 0c                     	subl	$12, %esp
  2035f2: 50                           	pushl	%eax
  2035f3: e8 28 08 00 00               	calll	2088 <_ZN8Raquette4getYEv>
  2035f8: 83 c4 10                     	addl	$16, %esp
  2035fb: 89 c2                        	movl	%eax, %edx
  2035fd: c1 e2 02                     	shll	$2, %edx
  203600: 01 c2                        	addl	%eax, %edx
  203602: 8d 04 95 00 00 00 00         	leal	(,%edx,4), %eax
  203609: 89 c2                        	movl	%eax, %edx
  20360b: 89 d8                        	movl	%ebx, %eax
  20360d: c1 e0 02                     	shll	$2, %eax
  203610: 01 d8                        	addl	%ebx, %eax
  203612: 8d 0c 85 00 00 00 00         	leal	(,%eax,4), %ecx
  203619: 01 c8                        	addl	%ecx, %eax
  20361b: c1 e0 06                     	shll	$6, %eax
  20361e: 01 c2                        	addl	%eax, %edx
  203620: 8b 45 08                     	movl	8(%ebp), %eax
  203623: 01 d0                        	addl	%edx, %eax
  203625: 83 ec 0c                     	subl	$12, %esp
  203628: 50                           	pushl	%eax
  203629: e8 a6 f1 ff ff               	calll	-3674 <_ZN4Case11setCaseBordEv>
  20362e: 83 c4 10                     	addl	$16, %esp
  203631: 8b 45 08                     	movl	8(%ebp), %eax
  203634: 05 00 f4 01 00               	addl	$128000, %eax
  203639: 83 ec 0c                     	subl	$12, %esp
  20363c: 50                           	pushl	%eax
  20363d: e8 f4 07 00 00               	calll	2036 <_ZN8Raquette7getHautEv>
  203642: 83 c4 10                     	addl	$16, %esp
  203645: 89 c3                        	movl	%eax, %ebx
  203647: 8b 45 08                     	movl	8(%ebp), %eax
  20364a: 05 00 f4 01 00               	addl	$128000, %eax
  20364f: 83 ec 0c                     	subl	$12, %esp
  203652: 50                           	pushl	%eax
  203653: e8 c8 07 00 00               	calll	1992 <_ZN8Raquette4getYEv>
  203658: 83 c4 10                     	addl	$16, %esp
  20365b: 89 c2                        	movl	%eax, %edx
  20365d: c1 e2 02                     	shll	$2, %edx
  203660: 01 c2                        	addl	%eax, %edx
  203662: 8d 04 95 00 00 00 00         	leal	(,%edx,4), %eax
  203669: 89 c2                        	movl	%eax, %edx
  20366b: 89 d8                        	movl	%ebx, %eax
  20366d: c1 e0 02                     	shll	$2, %eax
  203670: 01 d8                        	addl	%ebx, %eax
  203672: 8d 0c 85 00 00 00 00         	leal	(,%eax,4), %ecx
  203679: 01 c8                        	addl	%ecx, %eax
  20367b: c1 e0 06                     	shll	$6, %eax
  20367e: 01 c2                        	addl	%eax, %edx
  203680: 8b 45 08                     	movl	8(%ebp), %eax
  203683: 01 d0                        	addl	%edx, %eax
  203685: 83 ec 0c                     	subl	$12, %esp
  203688: 50                           	pushl	%eax
  203689: e8 56 f1 ff ff               	calll	-3754 <_ZN4Case5paintEv>
  20368e: 83 c4 10                     	addl	$16, %esp
  203691: e9 b6 01 00 00               	jmp	438 <_ZN6Grille14monterRaquetteEi+0x382>
  203696: 8b 45 08                     	movl	8(%ebp), %eax
  203699: 05 0c f4 01 00               	addl	$128012, %eax
  20369e: 83 ec 0c                     	subl	$12, %esp
  2036a1: 50                           	pushl	%eax
  2036a2: e8 8f 07 00 00               	calll	1935 <_ZN8Raquette7getHautEv>
  2036a7: 83 c4 10                     	addl	$16, %esp
  2036aa: 83 f8 01                     	cmpl	$1, %eax
  2036ad: 0f 9f c0                     	setg	%al
  2036b0: 84 c0                        	testb	%al, %al
  2036b2: 0f 84 94 01 00 00            	je	404 <_ZN6Grille14monterRaquetteEi+0x382>
  2036b8: 8b 45 08                     	movl	8(%ebp), %eax
  2036bb: 05 0c f4 01 00               	addl	$128012, %eax
  2036c0: 83 ec 0c                     	subl	$12, %esp
  2036c3: 50                           	pushl	%eax
  2036c4: e8 61 07 00 00               	calll	1889 <_ZN8Raquette6getBasEv>
  2036c9: 83 c4 10                     	addl	$16, %esp
  2036cc: 89 c3                        	movl	%eax, %ebx
  2036ce: 8b 45 08                     	movl	8(%ebp), %eax
  2036d1: 05 0c f4 01 00               	addl	$128012, %eax
  2036d6: 83 ec 0c                     	subl	$12, %esp
  2036d9: 50                           	pushl	%eax
  2036da: e8 41 07 00 00               	calll	1857 <_ZN8Raquette4getYEv>
  2036df: 83 c4 10                     	addl	$16, %esp
  2036e2: 89 c2                        	movl	%eax, %edx
  2036e4: c1 e2 02                     	shll	$2, %edx
  2036e7: 01 c2                        	addl	%eax, %edx
  2036e9: 8d 04 95 00 00 00 00         	leal	(,%edx,4), %eax
  2036f0: 89 c2                        	movl	%eax, %edx
  2036f2: 89 d8                        	movl	%ebx, %eax
  2036f4: c1 e0 02                     	shll	$2, %eax
  2036f7: 01 d8                        	addl	%ebx, %eax
  2036f9: 8d 0c 85 00 00 00 00         	leal	(,%eax,4), %ecx
  203700: 01 c8                        	addl	%ecx, %eax
  203702: c1 e0 06                     	shll	$6, %eax
  203705: 01 c2                        	addl	%eax, %edx
  203707: 8b 45 08                     	movl	8(%ebp), %eax
  20370a: 01 d0                        	addl	%edx, %eax
  20370c: 83 ec 0c                     	subl	$12, %esp
  20370f: 50                           	pushl	%eax
  203710: e8 9f f0 ff ff               	calll	-3937 <_ZN4Case11setCaseVideEv>
  203715: 83 c4 10                     	addl	$16, %esp
  203718: 8b 45 08                     	movl	8(%ebp), %eax
  20371b: 05 0c f4 01 00               	addl	$128012, %eax
  203720: 83 ec 0c                     	subl	$12, %esp
  203723: 50                           	pushl	%eax
  203724: e8 01 07 00 00               	calll	1793 <_ZN8Raquette6getBasEv>
  203729: 83 c4 10                     	addl	$16, %esp
  20372c: 89 c3                        	movl	%eax, %ebx
  20372e: 8b 45 08                     	movl	8(%ebp), %eax
  203731: 05 0c f4 01 00               	addl	$128012, %eax
  203736: 83 ec 0c                     	subl	$12, %esp
  203739: 50                           	pushl	%eax
  20373a: e8 e1 06 00 00               	calll	1761 <_ZN8Raquette4getYEv>
  20373f: 83 c4 10                     	addl	$16, %esp
  203742: 89 c2                        	movl	%eax, %edx
  203744: c1 e2 02                     	shll	$2, %edx
  203747: 01 c2                        	addl	%eax, %edx
  203749: 8d 04 95 00 00 00 00         	leal	(,%edx,4), %eax
  203750: 89 c2                        	movl	%eax, %edx
  203752: 89 d8                        	movl	%ebx, %eax
  203754: c1 e0 02                     	shll	$2, %eax
  203757: 01 d8                        	addl	%ebx, %eax
  203759: 8d 0c 85 00 00 00 00         	leal	(,%eax,4), %ecx
  203760: 01 c8                        	addl	%ecx, %eax
  203762: c1 e0 06                     	shll	$6, %eax
  203765: 01 c2                        	addl	%eax, %edx
  203767: 8b 45 08                     	movl	8(%ebp), %eax
  20376a: 01 d0                        	addl	%edx, %eax
  20376c: 83 ec 0c                     	subl	$12, %esp
  20376f: 50                           	pushl	%eax
  203770: e8 6f f0 ff ff               	calll	-3985 <_ZN4Case5paintEv>
  203775: 83 c4 10                     	addl	$16, %esp
  203778: 8b 45 08                     	movl	8(%ebp), %eax
  20377b: 05 0c f4 01 00               	addl	$128012, %eax
  203780: 83 ec 0c                     	subl	$12, %esp
  203783: 50                           	pushl	%eax
  203784: e8 b9 06 00 00               	calll	1721 <_ZN8Raquette6monterEv>
  203789: 83 c4 10                     	addl	$16, %esp
  20378c: 8b 45 08                     	movl	8(%ebp), %eax
  20378f: 05 0c f4 01 00               	addl	$128012, %eax
  203794: 83 ec 0c                     	subl	$12, %esp
  203797: 50                           	pushl	%eax
  203798: e8 99 06 00 00               	calll	1689 <_ZN8Raquette7getHautEv>
  20379d: 83 c4 10                     	addl	$16, %esp
  2037a0: 89 c3                        	movl	%eax, %ebx
  2037a2: 8b 45 08                     	movl	8(%ebp), %eax
  2037a5: 05 0c f4 01 00               	addl	$128012, %eax
  2037aa: 83 ec 0c                     	subl	$12, %esp
  2037ad: 50                           	pushl	%eax
  2037ae: e8 6d 06 00 00               	calll	1645 <_ZN8Raquette4getYEv>
  2037b3: 83 c4 10                     	addl	$16, %esp
  2037b6: 89 c2                        	movl	%eax, %edx
  2037b8: c1 e2 02                     	shll	$2, %edx
  2037bb: 01 c2                        	addl	%eax, %edx
  2037bd: 8d 04 95 00 00 00 00         	leal	(,%edx,4), %eax
  2037c4: 89 c2                        	movl	%eax, %edx
  2037c6: 89 d8                        	movl	%ebx, %eax
  2037c8: c1 e0 02                     	shll	$2, %eax
  2037cb: 01 d8                        	addl	%ebx, %eax
  2037cd: 8d 0c 85 00 00 00 00         	leal	(,%eax,4), %ecx
  2037d4: 01 c8                        	addl	%ecx, %eax
  2037d6: c1 e0 06                     	shll	$6, %eax
  2037d9: 01 c2                        	addl	%eax, %edx
  2037db: 8b 45 08                     	movl	8(%ebp), %eax
  2037de: 01 d0                        	addl	%edx, %eax
  2037e0: 83 ec 0c                     	subl	$12, %esp
  2037e3: 50                           	pushl	%eax
  2037e4: e8 eb ef ff ff               	calll	-4117 <_ZN4Case11setCaseBordEv>
  2037e9: 83 c4 10                     	addl	$16, %esp
  2037ec: 8b 45 08                     	movl	8(%ebp), %eax
  2037ef: 05 0c f4 01 00               	addl	$128012, %eax
  2037f4: 83 ec 0c                     	subl	$12, %esp
  2037f7: 50                           	pushl	%eax
  2037f8: e8 39 06 00 00               	calll	1593 <_ZN8Raquette7getHautEv>
  2037fd: 83 c4 10                     	addl	$16, %esp
  203800: 89 c3                        	movl	%eax, %ebx
  203802: 8b 45 08                     	movl	8(%ebp), %eax
  203805: 05 0c f4 01 00               	addl	$128012, %eax
  20380a: 83 ec 0c                     	subl	$12, %esp
  20380d: 50                           	pushl	%eax
  20380e: e8 0d 06 00 00               	calll	1549 <_ZN8Raquette4getYEv>
  203813: 83 c4 10                     	addl	$16, %esp
  203816: 89 c2                        	movl	%eax, %edx
  203818: c1 e2 02                     	shll	$2, %edx
  20381b: 01 c2                        	addl	%eax, %edx
  20381d: 8d 04 95 00 00 00 00         	leal	(,%edx,4), %eax
  203824: 89 c2                        	movl	%eax, %edx
  203826: 89 d8                        	movl	%ebx, %eax
  203828: c1 e0 02                     	shll	$2, %eax
  20382b: 01 d8                        	addl	%ebx, %eax
  20382d: 8d 0c 85 00 00 00 00         	leal	(,%eax,4), %ecx
  203834: 01 c8                        	addl	%ecx, %eax
  203836: c1 e0 06                     	shll	$6, %eax
  203839: 01 c2                        	addl	%eax, %edx
  20383b: 8b 45 08                     	movl	8(%ebp), %eax
  20383e: 01 d0                        	addl	%edx, %eax
  203840: 83 ec 0c                     	subl	$12, %esp
  203843: 50                           	pushl	%eax
  203844: e8 9b ef ff ff               	calll	-4197 <_ZN4Case5paintEv>
  203849: 83 c4 10                     	addl	$16, %esp
  20384c: 90                           	nop
  20384d: 8b 5d fc                     	movl	-4(%ebp), %ebx
  203850: c9                           	leave
  203851: c3                           	retl

00203852 Grille::descendreRaquette(int):
  203852: 55                           	pushl	%ebp
  203853: 89 e5                        	movl	%esp, %ebp
  203855: 53                           	pushl	%ebx
  203856: 83 ec 04                     	subl	$4, %esp
  203859: 83 7d 0c 01                  	cmpl	$1, 12(%ebp)
  20385d: 0f 85 bb 01 00 00            	jne	443 <_ZN6Grille17descendreRaquetteEi+0x1cc>
  203863: 8b 45 08                     	movl	8(%ebp), %eax
  203866: 05 00 f4 01 00               	addl	$128000, %eax
  20386b: 83 ec 0c                     	subl	$12, %esp
  20386e: 50                           	pushl	%eax
  20386f: e8 b6 05 00 00               	calll	1462 <_ZN8Raquette6getBasEv>
  203874: 83 c4 10                     	addl	$16, %esp
  203877: 83 f8 16                     	cmpl	$22, %eax
  20387a: 0f 9e c0                     	setle	%al
  20387d: 84 c0                        	testb	%al, %al
  20387f: 0f 84 4f 03 00 00            	je	847 <_ZN6Grille17descendreRaquetteEi+0x382>
  203885: 8b 45 08                     	movl	8(%ebp), %eax
  203888: 05 00 f4 01 00               	addl	$128000, %eax
  20388d: 83 ec 0c                     	subl	$12, %esp
  203890: 50                           	pushl	%eax
  203891: e8 a0 05 00 00               	calll	1440 <_ZN8Raquette7getHautEv>
  203896: 83 c4 10                     	addl	$16, %esp
  203899: 89 c3                        	movl	%eax, %ebx
  20389b: 8b 45 08                     	movl	8(%ebp), %eax
  20389e: 05 00 f4 01 00               	addl	$128000, %eax
  2038a3: 83 ec 0c                     	subl	$12, %esp
  2038a6: 50                           	pushl	%eax
  2038a7: e8 74 05 00 00               	calll	1396 <_ZN8Raquette4getYEv>
  2038ac: 83 c4 10                     	addl	$16, %esp
  2038af: 89 c2                        	movl	%eax, %edx
  2038b1: c1 e2 02                     	shll	$2, %edx
  2038b4: 01 c2                        	addl	%eax, %edx
  2038b6: 8d 04 95 00 00 00 00         	leal	(,%edx,4), %eax
  2038bd: 89 c2                        	movl	%eax, %edx
  2038bf: 89 d8                        	movl	%ebx, %eax
  2038c1: c1 e0 02                     	shll	$2, %eax
  2038c4: 01 d8                        	addl	%ebx, %eax
  2038c6: 8d 0c 85 00 00 00 00         	leal	(,%eax,4), %ecx
  2038cd: 01 c8                        	addl	%ecx, %eax
  2038cf: c1 e0 06                     	shll	$6, %eax
  2038d2: 01 c2                        	addl	%eax, %edx
  2038d4: 8b 45 08                     	movl	8(%ebp), %eax
  2038d7: 01 d0                        	addl	%edx, %eax
  2038d9: 83 ec 0c                     	subl	$12, %esp
  2038dc: 50                           	pushl	%eax
  2038dd: e8 d2 ee ff ff               	calll	-4398 <_ZN4Case11setCaseVideEv>
  2038e2: 83 c4 10                     	addl	$16, %esp
  2038e5: 8b 45 08                     	movl	8(%ebp), %eax
  2038e8: 05 00 f4 01 00               	addl	$128000, %eax
  2038ed: 83 ec 0c                     	subl	$12, %esp
  2038f0: 50                           	pushl	%eax
  2038f1: e8 40 05 00 00               	calll	1344 <_ZN8Raquette7getHautEv>
  2038f6: 83 c4 10                     	addl	$16, %esp
  2038f9: 89 c3                        	movl	%eax, %ebx
  2038fb: 8b 45 08                     	movl	8(%ebp), %eax
  2038fe: 05 00 f4 01 00               	addl	$128000, %eax
  203903: 83 ec 0c                     	subl	$12, %esp
  203906: 50                           	pushl	%eax
  203907: e8 14 05 00 00               	calll	1300 <_ZN8Raquette4getYEv>
  20390c: 83 c4 10                     	addl	$16, %esp
  20390f: 89 c2                        	movl	%eax, %edx
  203911: c1 e2 02                     	shll	$2, %edx
  203914: 01 c2                        	addl	%eax, %edx
  203916: 8d 04 95 00 00 00 00         	leal	(,%edx,4), %eax
  20391d: 89 c2                        	movl	%eax, %edx
  20391f: 89 d8                        	movl	%ebx, %eax
  203921: c1 e0 02                     	shll	$2, %eax
  203924: 01 d8                        	addl	%ebx, %eax
  203926: 8d 0c 85 00 00 00 00         	leal	(,%eax,4), %ecx
  20392d: 01 c8                        	addl	%ecx, %eax
  20392f: c1 e0 06                     	shll	$6, %eax
  203932: 01 c2                        	addl	%eax, %edx
  203934: 8b 45 08                     	movl	8(%ebp), %eax
  203937: 01 d0                        	addl	%edx, %eax
  203939: 83 ec 0c                     	subl	$12, %esp
  20393c: 50                           	pushl	%eax
  20393d: e8 a2 ee ff ff               	calll	-4446 <_ZN4Case5paintEv>
  203942: 83 c4 10                     	addl	$16, %esp
  203945: 8b 45 08                     	movl	8(%ebp), %eax
  203948: 05 00 f4 01 00               	addl	$128000, %eax
  20394d: 83 ec 0c                     	subl	$12, %esp
  203950: 50                           	pushl	%eax
  203951: e8 10 05 00 00               	calll	1296 <_ZN8Raquette9descendreEv>
  203956: 83 c4 10                     	addl	$16, %esp
  203959: 8b 45 08                     	movl	8(%ebp), %eax
  20395c: 05 00 f4 01 00               	addl	$128000, %eax
  203961: 83 ec 0c                     	subl	$12, %esp
  203964: 50                           	pushl	%eax
  203965: e8 c0 04 00 00               	calll	1216 <_ZN8Raquette6getBasEv>
  20396a: 83 c4 10                     	addl	$16, %esp
  20396d: 89 c3                        	movl	%eax, %ebx
  20396f: 8b 45 08                     	movl	8(%ebp), %eax
  203972: 05 00 f4 01 00               	addl	$128000, %eax
  203977: 83 ec 0c                     	subl	$12, %esp
  20397a: 50                           	pushl	%eax
  20397b: e8 a0 04 00 00               	calll	1184 <_ZN8Raquette4getYEv>
  203980: 83 c4 10                     	addl	$16, %esp
  203983: 89 c2                        	movl	%eax, %edx
  203985: c1 e2 02                     	shll	$2, %edx
  203988: 01 c2                        	addl	%eax, %edx
  20398a: 8d 04 95 00 00 00 00         	leal	(,%edx,4), %eax
  203991: 89 c2                        	movl	%eax, %edx
  203993: 89 d8                        	movl	%ebx, %eax
  203995: c1 e0 02                     	shll	$2, %eax
  203998: 01 d8                        	addl	%ebx, %eax
  20399a: 8d 0c 85 00 00 00 00         	leal	(,%eax,4), %ecx
  2039a1: 01 c8                        	addl	%ecx, %eax
  2039a3: c1 e0 06                     	shll	$6, %eax
  2039a6: 01 c2                        	addl	%eax, %edx
  2039a8: 8b 45 08                     	movl	8(%ebp), %eax
  2039ab: 01 d0                        	addl	%edx, %eax
  2039ad: 83 ec 0c                     	subl	$12, %esp
  2039b0: 50                           	pushl	%eax
  2039b1: e8 1e ee ff ff               	calll	-4578 <_ZN4Case11setCaseBordEv>
  2039b6: 83 c4 10                     	addl	$16, %esp
  2039b9: 8b 45 08                     	movl	8(%ebp), %eax
  2039bc: 05 00 f4 01 00               	addl	$128000, %eax
  2039c1: 83 ec 0c                     	subl	$12, %esp
  2039c4: 50                           	pushl	%eax
  2039c5: e8 60 04 00 00               	calll	1120 <_ZN8Raquette6getBasEv>
  2039ca: 83 c4 10                     	addl	$16, %esp
  2039cd: 89 c3                        	movl	%eax, %ebx
  2039cf: 8b 45 08                     	movl	8(%ebp), %eax
  2039d2: 05 00 f4 01 00               	addl	$128000, %eax
  2039d7: 83 ec 0c                     	subl	$12, %esp
  2039da: 50                           	pushl	%eax
  2039db: e8 40 04 00 00               	calll	1088 <_ZN8Raquette4getYEv>
  2039e0: 83 c4 10                     	addl	$16, %esp
  2039e3: 89 c2                        	movl	%eax, %edx
  2039e5: c1 e2 02                     	shll	$2, %edx
  2039e8: 01 c2                        	addl	%eax, %edx
  2039ea: 8d 04 95 00 00 00 00         	leal	(,%edx,4), %eax
  2039f1: 89 c2                        	movl	%eax, %edx
  2039f3: 89 d8                        	movl	%ebx, %eax
  2039f5: c1 e0 02                     	shll	$2, %eax
  2039f8: 01 d8                        	addl	%ebx, %eax
  2039fa: 8d 0c 85 00 00 00 00         	leal	(,%eax,4), %ecx
  203a01: 01 c8                        	addl	%ecx, %eax
  203a03: c1 e0 06                     	shll	$6, %eax
  203a06: 01 c2                        	addl	%eax, %edx
  203a08: 8b 45 08                     	movl	8(%ebp), %eax
  203a0b: 01 d0                        	addl	%edx, %eax
  203a0d: 83 ec 0c                     	subl	$12, %esp
  203a10: 50                           	pushl	%eax
  203a11: e8 ce ed ff ff               	calll	-4658 <_ZN4Case5paintEv>
  203a16: 83 c4 10                     	addl	$16, %esp
  203a19: e9 b6 01 00 00               	jmp	438 <_ZN6Grille17descendreRaquetteEi+0x382>
  203a1e: 8b 45 08                     	movl	8(%ebp), %eax
  203a21: 05 0c f4 01 00               	addl	$128012, %eax
  203a26: 83 ec 0c                     	subl	$12, %esp
  203a29: 50                           	pushl	%eax
  203a2a: e8 fb 03 00 00               	calll	1019 <_ZN8Raquette6getBasEv>
  203a2f: 83 c4 10                     	addl	$16, %esp
  203a32: 83 f8 16                     	cmpl	$22, %eax
  203a35: 0f 9e c0                     	setle	%al
  203a38: 84 c0                        	testb	%al, %al
  203a3a: 0f 84 94 01 00 00            	je	404 <_ZN6Grille17descendreRaquetteEi+0x382>
  203a40: 8b 45 08                     	movl	8(%ebp), %eax
  203a43: 05 0c f4 01 00               	addl	$128012, %eax
  203a48: 83 ec 0c                     	subl	$12, %esp
  203a4b: 50                           	pushl	%eax
  203a4c: e8 e5 03 00 00               	calll	997 <_ZN8Raquette7getHautEv>
  203a51: 83 c4 10                     	addl	$16, %esp
  203a54: 89 c3                        	movl	%eax, %ebx
  203a56: 8b 45 08                     	movl	8(%ebp), %eax
  203a59: 05 0c f4 01 00               	addl	$128012, %eax
  203a5e: 83 ec 0c                     	subl	$12, %esp
  203a61: 50                           	pushl	%eax
  203a62: e8 b9 03 00 00               	calll	953 <_ZN8Raquette4getYEv>
  203a67: 83 c4 10                     	addl	$16, %esp
  203a6a: 89 c2                        	movl	%eax, %edx
  203a6c: c1 e2 02                     	shll	$2, %edx
  203a6f: 01 c2                        	addl	%eax, %edx
  203a71: 8d 04 95 00 00 00 00         	leal	(,%edx,4), %eax
  203a78: 89 c2                        	movl	%eax, %edx
  203a7a: 89 d8                        	movl	%ebx, %eax
  203a7c: c1 e0 02                     	shll	$2, %eax
  203a7f: 01 d8                        	addl	%ebx, %eax
  203a81: 8d 0c 85 00 00 00 00         	leal	(,%eax,4), %ecx
  203a88: 01 c8                        	addl	%ecx, %eax
  203a8a: c1 e0 06                     	shll	$6, %eax
  203a8d: 01 c2                        	addl	%eax, %edx
  203a8f: 8b 45 08                     	movl	8(%ebp), %eax
  203a92: 01 d0                        	addl	%edx, %eax
  203a94: 83 ec 0c                     	subl	$12, %esp
  203a97: 50                           	pushl	%eax
  203a98: e8 17 ed ff ff               	calll	-4841 <_ZN4Case11setCaseVideEv>
  203a9d: 83 c4 10                     	addl	$16, %esp
  203aa0: 8b 45 08                     	movl	8(%ebp), %eax
  203aa3: 05 0c f4 01 00               	addl	$128012, %eax
  203aa8: 83 ec 0c                     	subl	$12, %esp
  203aab: 50                           	pushl	%eax
  203aac: e8 85 03 00 00               	calll	901 <_ZN8Raquette7getHautEv>
  203ab1: 83 c4 10                     	addl	$16, %esp
  203ab4: 89 c3                        	movl	%eax, %ebx
  203ab6: 8b 45 08                     	movl	8(%ebp), %eax
  203ab9: 05 0c f4 01 00               	addl	$128012, %eax
  203abe: 83 ec 0c                     	subl	$12, %esp
  203ac1: 50                           	pushl	%eax
  203ac2: e8 59 03 00 00               	calll	857 <_ZN8Raquette4getYEv>
  203ac7: 83 c4 10                     	addl	$16, %esp
  203aca: 89 c2                        	movl	%eax, %edx
  203acc: c1 e2 02                     	shll	$2, %edx
  203acf: 01 c2                        	addl	%eax, %edx
  203ad1: 8d 04 95 00 00 00 00         	leal	(,%edx,4), %eax
  203ad8: 89 c2                        	movl	%eax, %edx
  203ada: 89 d8                        	movl	%ebx, %eax
  203adc: c1 e0 02                     	shll	$2, %eax
  203adf: 01 d8                        	addl	%ebx, %eax
  203ae1: 8d 0c 85 00 00 00 00         	leal	(,%eax,4), %ecx
  203ae8: 01 c8                        	addl	%ecx, %eax
  203aea: c1 e0 06                     	shll	$6, %eax
  203aed: 01 c2                        	addl	%eax, %edx
  203aef: 8b 45 08                     	movl	8(%ebp), %eax
  203af2: 01 d0                        	addl	%edx, %eax
  203af4: 83 ec 0c                     	subl	$12, %esp
  203af7: 50                           	pushl	%eax
  203af8: e8 e7 ec ff ff               	calll	-4889 <_ZN4Case5paintEv>
  203afd: 83 c4 10                     	addl	$16, %esp
  203b00: 8b 45 08                     	movl	8(%ebp), %eax
  203b03: 05 0c f4 01 00               	addl	$128012, %eax
  203b08: 83 ec 0c                     	subl	$12, %esp
  203b0b: 50                           	pushl	%eax
  203b0c: e8 55 03 00 00               	calll	853 <_ZN8Raquette9descendreEv>
  203b11: 83 c4 10                     	addl	$16, %esp
  203b14: 8b 45 08                     	movl	8(%ebp), %eax
  203b17: 05 0c f4 01 00               	addl	$128012, %eax
  203b1c: 83 ec 0c                     	subl	$12, %esp
  203b1f: 50                           	pushl	%eax
  203b20: e8 05 03 00 00               	calll	773 <_ZN8Raquette6getBasEv>
  203b25: 83 c4 10                     	addl	$16, %esp
  203b28: 89 c3                        	movl	%eax, %ebx
  203b2a: 8b 45 08                     	movl	8(%ebp), %eax
  203b2d: 05 0c f4 01 00               	addl	$128012, %eax
  203b32: 83 ec 0c                     	subl	$12, %esp
  203b35: 50                           	pushl	%eax
  203b36: e8 e5 02 00 00               	calll	741 <_ZN8Raquette4getYEv>
  203b3b: 83 c4 10                     	addl	$16, %esp
  203b3e: 89 c2                        	movl	%eax, %edx
  203b40: c1 e2 02                     	shll	$2, %edx
  203b43: 01 c2                        	addl	%eax, %edx
  203b45: 8d 04 95 00 00 00 00         	leal	(,%edx,4), %eax
  203b4c: 89 c2                        	movl	%eax, %edx
  203b4e: 89 d8                        	movl	%ebx, %eax
  203b50: c1 e0 02                     	shll	$2, %eax
  203b53: 01 d8                        	addl	%ebx, %eax
  203b55: 8d 0c 85 00 00 00 00         	leal	(,%eax,4), %ecx
  203b5c: 01 c8                        	addl	%ecx, %eax
  203b5e: c1 e0 06                     	shll	$6, %eax
  203b61: 01 c2                        	addl	%eax, %edx
  203b63: 8b 45 08                     	movl	8(%ebp), %eax
  203b66: 01 d0                        	addl	%edx, %eax
  203b68: 83 ec 0c                     	subl	$12, %esp
  203b6b: 50                           	pushl	%eax
  203b6c: e8 63 ec ff ff               	calll	-5021 <_ZN4Case11setCaseBordEv>
  203b71: 83 c4 10                     	addl	$16, %esp
  203b74: 8b 45 08                     	movl	8(%ebp), %eax
  203b77: 05 0c f4 01 00               	addl	$128012, %eax
  203b7c: 83 ec 0c                     	subl	$12, %esp
  203b7f: 50                           	pushl	%eax
  203b80: e8 a5 02 00 00               	calll	677 <_ZN8Raquette6getBasEv>
  203b85: 83 c4 10                     	addl	$16, %esp
  203b88: 89 c3                        	movl	%eax, %ebx
  203b8a: 8b 45 08                     	movl	8(%ebp), %eax
  203b8d: 05 0c f4 01 00               	addl	$128012, %eax
  203b92: 83 ec 0c                     	subl	$12, %esp
  203b95: 50                           	pushl	%eax
  203b96: e8 85 02 00 00               	calll	645 <_ZN8Raquette4getYEv>
  203b9b: 83 c4 10                     	addl	$16, %esp
  203b9e: 89 c2                        	movl	%eax, %edx
  203ba0: c1 e2 02                     	shll	$2, %edx
  203ba3: 01 c2                        	addl	%eax, %edx
  203ba5: 8d 04 95 00 00 00 00         	leal	(,%edx,4), %eax
  203bac: 89 c2                        	movl	%eax, %edx
  203bae: 89 d8                        	movl	%ebx, %eax
  203bb0: c1 e0 02                     	shll	$2, %eax
  203bb3: 01 d8                        	addl	%ebx, %eax
  203bb5: 8d 0c 85 00 00 00 00         	leal	(,%eax,4), %ecx
  203bbc: 01 c8                        	addl	%ecx, %eax
  203bbe: c1 e0 06                     	shll	$6, %eax
  203bc1: 01 c2                        	addl	%eax, %edx
  203bc3: 8b 45 08                     	movl	8(%ebp), %eax
  203bc6: 01 d0                        	addl	%edx, %eax
  203bc8: 83 ec 0c                     	subl	$12, %esp
  203bcb: 50                           	pushl	%eax
  203bcc: e8 13 ec ff ff               	calll	-5101 <_ZN4Case5paintEv>
  203bd1: 83 c4 10                     	addl	$16, %esp
  203bd4: 90                           	nop
  203bd5: 8b 5d fc                     	movl	-4(%ebp), %ebx
  203bd8: c9                           	leave
  203bd9: c3                           	retl

00203bda Grille::initRaquette(int, int):
  203bda: 55                           	pushl	%ebp
  203bdb: 89 e5                        	movl	%esp, %ebp
  203bdd: 53                           	pushl	%ebx
  203bde: 83 ec 14                     	subl	$20, %esp
  203be1: 8b 45 08                     	movl	8(%ebp), %eax
  203be4: 05 00 f4 01 00               	addl	$128000, %eax
  203be9: 83 ec 04                     	subl	$4, %esp
  203bec: ff 75 0c                     	pushl	12(%ebp)
  203bef: ff 75 10                     	pushl	16(%ebp)
  203bf2: 50                           	pushl	%eax
  203bf3: e8 ee 01 00 00               	calll	494 <_ZN8Raquette4initEii>
  203bf8: 83 c4 10                     	addl	$16, %esp
  203bfb: 8b 45 08                     	movl	8(%ebp), %eax
  203bfe: 8d 90 0c f4 01 00            	leal	128012(%eax), %edx
  203c04: b8 4f 00 00 00               	movl	$79, %eax
  203c09: 2b 45 0c                     	subl	12(%ebp), %eax
  203c0c: 83 ec 04                     	subl	$4, %esp
  203c0f: 50                           	pushl	%eax
  203c10: ff 75 10                     	pushl	16(%ebp)
  203c13: 52                           	pushl	%edx
  203c14: e8 cd 01 00 00               	calll	461 <_ZN8Raquette4initEii>
  203c19: 83 c4 10                     	addl	$16, %esp
  203c1c: c7 45 f4 00 00 00 00         	movl	$0, -12(%ebp)
  203c23: 8b 45 f4                     	movl	-12(%ebp), %eax
  203c26: 3b 45 10                     	cmpl	16(%ebp), %eax
  203c29: 0f 8f d0 00 00 00            	jg	208 <_ZN6Grille12initRaquetteEii+0x125>
  203c2f: 8b 45 08                     	movl	8(%ebp), %eax
  203c32: 05 00 f4 01 00               	addl	$128000, %eax
  203c37: 83 ec 0c                     	subl	$12, %esp
  203c3a: 50                           	pushl	%eax
  203c3b: e8 f6 01 00 00               	calll	502 <_ZN8Raquette7getHautEv>
  203c40: 83 c4 10                     	addl	$16, %esp
  203c43: 8b 55 f4                     	movl	-12(%ebp), %edx
  203c46: 8d 1c 10                     	leal	(%eax,%edx), %ebx
  203c49: 8b 45 08                     	movl	8(%ebp), %eax
  203c4c: 05 00 f4 01 00               	addl	$128000, %eax
  203c51: 83 ec 0c                     	subl	$12, %esp
  203c54: 50                           	pushl	%eax
  203c55: e8 c6 01 00 00               	calll	454 <_ZN8Raquette4getYEv>
  203c5a: 83 c4 10                     	addl	$16, %esp
  203c5d: 89 c2                        	movl	%eax, %edx
  203c5f: c1 e2 02                     	shll	$2, %edx
  203c62: 01 c2                        	addl	%eax, %edx
  203c64: 8d 04 95 00 00 00 00         	leal	(,%edx,4), %eax
  203c6b: 89 c2                        	movl	%eax, %edx
  203c6d: 89 d8                        	movl	%ebx, %eax
  203c6f: c1 e0 02                     	shll	$2, %eax
  203c72: 01 d8                        	addl	%ebx, %eax
  203c74: 8d 0c 85 00 00 00 00         	leal	(,%eax,4), %ecx
  203c7b: 01 c8                        	addl	%ecx, %eax
  203c7d: c1 e0 06                     	shll	$6, %eax
  203c80: 01 c2                        	addl	%eax, %edx
  203c82: 8b 45 08                     	movl	8(%ebp), %eax
  203c85: 01 d0                        	addl	%edx, %eax
  203c87: 83 ec 0c                     	subl	$12, %esp
  203c8a: 50                           	pushl	%eax
  203c8b: e8 44 eb ff ff               	calll	-5308 <_ZN4Case11setCaseBordEv>
  203c90: 83 c4 10                     	addl	$16, %esp
  203c93: 8b 45 08                     	movl	8(%ebp), %eax
  203c96: 05 0c f4 01 00               	addl	$128012, %eax
  203c9b: 83 ec 0c                     	subl	$12, %esp
  203c9e: 50                           	pushl	%eax
  203c9f: e8 92 01 00 00               	calll	402 <_ZN8Raquette7getHautEv>
  203ca4: 83 c4 10                     	addl	$16, %esp
  203ca7: 8b 55 f4                     	movl	-12(%ebp), %edx
  203caa: 8d 1c 10                     	leal	(%eax,%edx), %ebx
  203cad: 8b 45 08                     	movl	8(%ebp), %eax
  203cb0: 05 0c f4 01 00               	addl	$128012, %eax
  203cb5: 83 ec 0c                     	subl	$12, %esp
  203cb8: 50                           	pushl	%eax
  203cb9: e8 62 01 00 00               	calll	354 <_ZN8Raquette4getYEv>
  203cbe: 83 c4 10                     	addl	$16, %esp
  203cc1: 89 c2                        	movl	%eax, %edx
  203cc3: c1 e2 02                     	shll	$2, %edx
  203cc6: 01 c2                        	addl	%eax, %edx
  203cc8: 8d 04 95 00 00 00 00         	leal	(,%edx,4), %eax
  203ccf: 89 c2                        	movl	%eax, %edx
  203cd1: 89 d8                        	movl	%ebx, %eax
  203cd3: c1 e0 02                     	shll	$2, %eax
  203cd6: 01 d8                        	addl	%ebx, %eax
  203cd8: 8d 0c 85 00 00 00 00         	leal	(,%eax,4), %ecx
  203cdf: 01 c8                        	addl	%ecx, %eax
  203ce1: c1 e0 06                     	shll	$6, %eax
  203ce4: 01 c2                        	addl	%eax, %edx
  203ce6: 8b 45 08                     	movl	8(%ebp), %eax
  203ce9: 01 d0                        	addl	%edx, %eax
  203ceb: 83 ec 0c                     	subl	$12, %esp
  203cee: 50                           	pushl	%eax
  203cef: e8 e0 ea ff ff               	calll	-5408 <_ZN4Case11setCaseBordEv>
  203cf4: 83 c4 10                     	addl	$16, %esp
  203cf7: ff 45 f4                     	incl	-12(%ebp)
  203cfa: e9 24 ff ff ff               	jmp	-220 <_ZN6Grille12initRaquetteEii+0x49>
  203cff: 90                           	nop
  203d00: 8b 5d fc                     	movl	-4(%ebp), %ebx
  203d03: c9                           	leave
  203d04: c3                           	retl
  203d05: 90                           	nop

00203d06 Grille::getCase(int, int):
  203d06: 55                           	pushl	%ebp
  203d07: 89 e5                        	movl	%esp, %ebp
  203d09: 8b 45 10                     	movl	16(%ebp), %eax
  203d0c: 89 c2                        	movl	%eax, %edx
  203d0e: c1 e2 02                     	shll	$2, %edx
  203d11: 01 c2                        	addl	%eax, %edx
  203d13: 8d 04 95 00 00 00 00         	leal	(,%edx,4), %eax
  203d1a: 89 c2                        	movl	%eax, %edx
  203d1c: 8b 4d 0c                     	movl	12(%ebp), %ecx
  203d1f: 89 c8                        	movl	%ecx, %eax
  203d21: c1 e0 02                     	shll	$2, %eax
  203d24: 01 c8                        	addl	%ecx, %eax
  203d26: 8d 0c 85 00 00 00 00         	leal	(,%eax,4), %ecx
  203d2d: 01 c8                        	addl	%ecx, %eax
  203d2f: c1 e0 06                     	shll	$6, %eax
  203d32: 01 c2                        	addl	%eax, %edx
  203d34: 8b 45 08                     	movl	8(%ebp), %eax
  203d37: 01 d0                        	addl	%edx, %eax
  203d39: 5d                           	popl	%ebp
  203d3a: c3                           	retl
  203d3b: 90                           	nop

00203d3c Grille::affiche():
  203d3c: 55                           	pushl	%ebp
  203d3d: 89 e5                        	movl	%esp, %ebp
  203d3f: 83 ec 18                     	subl	$24, %esp
  203d42: c7 45 f4 00 00 00 00         	movl	$0, -12(%ebp)
  203d49: 83 7d f4 18                  	cmpl	$24, -12(%ebp)
  203d4d: 7f 53                        	jg	83 <_ZN6Grille7afficheEv+0x66>
  203d4f: c7 45 f0 00 00 00 00         	movl	$0, -16(%ebp)
  203d56: 83 7d f0 4f                  	cmpl	$79, -16(%ebp)
  203d5a: 7f 41                        	jg	65 <_ZN6Grille7afficheEv+0x61>
  203d5c: 8b 45 f0                     	movl	-16(%ebp), %eax
  203d5f: 89 c2                        	movl	%eax, %edx
  203d61: c1 e2 02                     	shll	$2, %edx
  203d64: 01 c2                        	addl	%eax, %edx
  203d66: 8d 04 95 00 00 00 00         	leal	(,%edx,4), %eax
  203d6d: 89 c2                        	movl	%eax, %edx
  203d6f: 8b 4d f4                     	movl	-12(%ebp), %ecx
  203d72: 89 c8                        	movl	%ecx, %eax
  203d74: c1 e0 02                     	shll	$2, %eax
  203d77: 01 c8                        	addl	%ecx, %eax
  203d79: 8d 0c 85 00 00 00 00         	leal	(,%eax,4), %ecx
  203d80: 01 c8                        	addl	%ecx, %eax
  203d82: c1 e0 06                     	shll	$6, %eax
  203d85: 01 c2                        	addl	%eax, %edx
  203d87: 8b 45 08                     	movl	8(%ebp), %eax
  203d8a: 01 d0                        	addl	%edx, %eax
  203d8c: 83 ec 0c                     	subl	$12, %esp
  203d8f: 50                           	pushl	%eax
  203d90: e8 4f ea ff ff               	calll	-5553 <_ZN4Case5paintEv>
  203d95: 83 c4 10                     	addl	$16, %esp
  203d98: ff 45 f0                     	incl	-16(%ebp)
  203d9b: eb b9                        	jmp	-71 <_ZN6Grille7afficheEv+0x1a>
  203d9d: ff 45 f4                     	incl	-12(%ebp)
  203da0: eb a7                        	jmp	-89 <_ZN6Grille7afficheEv+0xd>
  203da2: 90                           	nop
  203da3: c9                           	leave
  203da4: c3                           	retl
  203da5: 90                           	nop

00203da6 Raquette::Raquette(int, int):
  203da6: 55                           	pushl	%ebp
  203da7: 89 e5                        	movl	%esp, %ebp
  203da9: 8b 45 0c                     	movl	12(%ebp), %eax
  203dac: 89 c2                        	movl	%eax, %edx
  203dae: c1 ea 1f                     	shrl	$31, %edx
  203db1: 01 d0                        	addl	%edx, %eax
  203db3: d1 f8                        	sarl	%eax
  203db5: 8d 50 0d                     	leal	13(%eax), %edx
  203db8: 8b 45 08                     	movl	8(%ebp), %eax
  203dbb: 89 50 04                     	movl	%edx, 4(%eax)
  203dbe: 8b 45 0c                     	movl	12(%ebp), %eax
  203dc1: 89 c2                        	movl	%eax, %edx
  203dc3: c1 ea 1f                     	shrl	$31, %edx
  203dc6: 01 d0                        	addl	%edx, %eax
  203dc8: d1 f8                        	sarl	%eax
  203dca: f7 d8                        	negl	%eax
  203dcc: 8d 50 0d                     	leal	13(%eax), %edx
  203dcf: 8b 45 08                     	movl	8(%ebp), %eax
  203dd2: 89 50 08                     	movl	%edx, 8(%eax)
  203dd5: 8b 45 08                     	movl	8(%ebp), %eax
  203dd8: 8b 55 10                     	movl	16(%ebp), %edx
  203ddb: 89 10                        	movl	%edx, (%eax)
  203ddd: 90                           	nop
  203dde: 5d                           	popl	%ebp
  203ddf: c3                           	retl

00203de0 Raquette::Raquette():
  203de0: 55                           	pushl	%ebp
  203de1: 89 e5                        	movl	%esp, %ebp
  203de3: 90                           	nop
  203de4: 5d                           	popl	%ebp
  203de5: c3                           	retl

00203de6 Raquette::init(int, int):
  203de6: 55                           	pushl	%ebp
  203de7: 89 e5                        	movl	%esp, %ebp
  203de9: 8b 45 0c                     	movl	12(%ebp), %eax
  203dec: 89 c2                        	movl	%eax, %edx
  203dee: c1 ea 1f                     	shrl	$31, %edx
  203df1: 01 d0                        	addl	%edx, %eax
  203df3: d1 f8                        	sarl	%eax
  203df5: 8d 50 0c                     	leal	12(%eax), %edx
  203df8: 8b 45 08                     	movl	8(%ebp), %eax
  203dfb: 89 50 04                     	movl	%edx, 4(%eax)
  203dfe: 8b 45 0c                     	movl	12(%ebp), %eax
  203e01: 89 c2                        	movl	%eax, %edx
  203e03: c1 ea 1f                     	shrl	$31, %edx
  203e06: 01 d0                        	addl	%edx, %eax
  203e08: d1 f8                        	sarl	%eax
  203e0a: f7 d8                        	negl	%eax
  203e0c: 8d 50 0c                     	leal	12(%eax), %edx
  203e0f: 8b 45 08                     	movl	8(%ebp), %eax
  203e12: 89 50 08                     	movl	%edx, 8(%eax)
  203e15: 8b 45 08                     	movl	8(%ebp), %eax
  203e18: 8b 55 10                     	movl	16(%ebp), %edx
  203e1b: 89 10                        	movl	%edx, (%eax)
  203e1d: 90                           	nop
  203e1e: 5d                           	popl	%ebp
  203e1f: c3                           	retl

00203e20 Raquette::getY():
  203e20: 55                           	pushl	%ebp
  203e21: 89 e5                        	movl	%esp, %ebp
  203e23: 8b 45 08                     	movl	8(%ebp), %eax
  203e26: 8b 00                        	movl	(%eax), %eax
  203e28: 5d                           	popl	%ebp
  203e29: c3                           	retl

00203e2a Raquette::getBas():
  203e2a: 55                           	pushl	%ebp
  203e2b: 89 e5                        	movl	%esp, %ebp
  203e2d: 8b 45 08                     	movl	8(%ebp), %eax
  203e30: 8b 40 04                     	movl	4(%eax), %eax
  203e33: 5d                           	popl	%ebp
  203e34: c3                           	retl
  203e35: 90                           	nop

00203e36 Raquette::getHaut():
  203e36: 55                           	pushl	%ebp
  203e37: 89 e5                        	movl	%esp, %ebp
  203e39: 8b 45 08                     	movl	8(%ebp), %eax
  203e3c: 8b 40 08                     	movl	8(%eax), %eax
  203e3f: 5d                           	popl	%ebp
  203e40: c3                           	retl
  203e41: 90                           	nop

00203e42 Raquette::monter():
  203e42: 55                           	pushl	%ebp
  203e43: 89 e5                        	movl	%esp, %ebp
  203e45: 8b 45 08                     	movl	8(%ebp), %eax
  203e48: 8b 40 08                     	movl	8(%eax), %eax
  203e4b: 8d 50 ff                     	leal	-1(%eax), %edx
  203e4e: 8b 45 08                     	movl	8(%ebp), %eax
  203e51: 89 50 08                     	movl	%edx, 8(%eax)
  203e54: 8b 45 08                     	movl	8(%ebp), %eax
  203e57: 8b 40 04                     	movl	4(%eax), %eax
  203e5a: 8d 50 ff                     	leal	-1(%eax), %edx
  203e5d: 8b 45 08                     	movl	8(%ebp), %eax
  203e60: 89 50 04                     	movl	%edx, 4(%eax)
  203e63: 90                           	nop
  203e64: 5d                           	popl	%ebp
  203e65: c3                           	retl

00203e66 Raquette::descendre():
  203e66: 55                           	pushl	%ebp
  203e67: 89 e5                        	movl	%esp, %ebp
  203e69: 8b 45 08                     	movl	8(%ebp), %eax
  203e6c: 8b 40 08                     	movl	8(%eax), %eax
  203e6f: 8d 50 01                     	leal	1(%eax), %edx
  203e72: 8b 45 08                     	movl	8(%ebp), %eax
  203e75: 89 50 08                     	movl	%edx, 8(%eax)
  203e78: 8b 45 08                     	movl	8(%ebp), %eax
  203e7b: 8b 40 04                     	movl	4(%eax), %eax
  203e7e: 8d 50 01                     	leal	1(%eax), %edx
  203e81: 8b 45 08                     	movl	8(%ebp), %eax
  203e84: 89 50 04                     	movl	%edx, 4(%eax)
  203e87: 90                           	nop
  203e88: 5d                           	popl	%ebp
  203e89: c3                           	retl

00203e8a Raquette::setBas(int):
  203e8a: 55                           	pushl	%ebp
  203e8b: 89 e5                        	movl	%esp, %ebp
  203e8d: 8b 45 08                     	movl	8(%ebp), %eax
  203e90: 8b 55 0c                     	movl	12(%ebp), %edx
  203e93: 89 50 04                     	movl	%edx, 4(%eax)
  203e96: 90                           	nop
  203e97: 5d                           	popl	%ebp
  203e98: c3                           	retl
  203e99: 90                           	nop

00203e9a Raquette::setHaut(int):
  203e9a: 55                           	pushl	%ebp
  203e9b: 89 e5                        	movl	%esp, %ebp
  203e9d: 8b 45 08                     	movl	8(%ebp), %eax
  203ea0: 8b 55 0c                     	movl	12(%ebp), %edx
  203ea3: 89 50 08                     	movl	%edx, 8(%eax)
  203ea6: 90                           	nop
  203ea7: 5d                           	popl	%ebp
  203ea8: c3                           	retl
  203ea9: 90                           	nop

00203eaa Raquette::setY(int):
  203eaa: 55                           	pushl	%ebp
  203eab: 89 e5                        	movl	%esp, %ebp
  203ead: 8b 45 08                     	movl	8(%ebp), %eax
  203eb0: 8b 55 0c                     	movl	12(%ebp), %edx
  203eb3: 89 10                        	movl	%edx, (%eax)
  203eb5: 90                           	nop
  203eb6: 5d                           	popl	%ebp
  203eb7: c3                           	retl

00203eb8 Horloge::Horloge(Ecran*, Timer*):
  203eb8: 55                           	pushl	%ebp
  203eb9: 89 e5                        	movl	%esp, %ebp
  203ebb: 8b 45 08                     	movl	8(%ebp), %eax
  203ebe: 8b 55 0c                     	movl	12(%ebp), %edx
  203ec1: 89 10                        	movl	%edx, (%eax)
  203ec3: 8b 45 08                     	movl	8(%ebp), %eax
  203ec6: 8b 55 10                     	movl	16(%ebp), %edx
  203ec9: 89 50 04                     	movl	%edx, 4(%eax)
  203ecc: 90                           	nop
  203ecd: 5d                           	popl	%ebp
  203ece: c3                           	retl
  203ecf: 90                           	nop

00203ed0 Horloge::afficheHeure():
  203ed0: 55                           	pushl	%ebp
  203ed1: 89 e5                        	movl	%esp, %ebp
  203ed3: 83 ec 18                     	subl	$24, %esp
  203ed6: c7 45 f4 00 00 00 00         	movl	$0, -12(%ebp)
  203edd: c7 45 f0 00 00 00 00         	movl	$0, -16(%ebp)
  203ee4: c7 45 ec 00 00 00 00         	movl	$0, -20(%ebp)
  203eeb: 8b 45 08                     	movl	8(%ebp), %eax
  203eee: 8b 40 04                     	movl	4(%eax), %eax
  203ef1: 83 ec 0c                     	subl	$12, %esp
  203ef4: 50                           	pushl	%eax
  203ef5: e8 62 e8 ff ff               	calll	-6046 <_ZN5Timer11getSecondesEv>
  203efa: 83 c4 10                     	addl	$16, %esp
  203efd: 89 45 ec                     	movl	%eax, -20(%ebp)
  203f00: 8b 45 ec                     	movl	-20(%ebp), %eax
  203f03: b9 3c 00 00 00               	movl	$60, %ecx
  203f08: 99                           	cltd
  203f09: f7 f9                        	idivl	%ecx
  203f0b: 89 55 f4                     	movl	%edx, -12(%ebp)
  203f0e: 8b 45 ec                     	movl	-20(%ebp), %eax
  203f11: b9 3c 00 00 00               	movl	$60, %ecx
  203f16: 99                           	cltd
  203f17: f7 f9                        	idivl	%ecx
  203f19: 89 45 f0                     	movl	%eax, -16(%ebp)
  203f1c: 8b 45 08                     	movl	8(%ebp), %eax
  203f1f: 8b 00                        	movl	(%eax), %eax
  203f21: 83 ec 0c                     	subl	$12, %esp
  203f24: 6a 0f                        	pushl	$15
  203f26: 68 80 4b 20 00               	pushl	$2116480
  203f2b: 6a 27                        	pushl	$39
  203f2d: 6a 00                        	pushl	$0
  203f2f: 50                           	pushl	%eax
  203f30: e8 4d e1 ff ff               	calll	-7859 <_ZN5Ecran11afficherMotEiiPKc7Couleur>
  203f35: 83 c4 20                     	addl	$32, %esp
  203f38: 83 7d f0 09                  	cmpl	$9, -16(%ebp)
  203f3c: 7f 2b                        	jg	43 <_ZN7Horloge12afficheHeureEv+0x99>
  203f3e: 8b 45 08                     	movl	8(%ebp), %eax
  203f41: 8b 00                        	movl	(%eax), %eax
  203f43: 6a 00                        	pushl	$0
  203f45: 6a 25                        	pushl	$37
  203f47: 6a 00                        	pushl	$0
  203f49: 50                           	pushl	%eax
  203f4a: e8 4f e3 ff ff               	calll	-7345 <_ZN5Ecran15afficherChiffreEiii>
  203f4f: 83 c4 10                     	addl	$16, %esp
  203f52: 8b 45 08                     	movl	8(%ebp), %eax
  203f55: 8b 00                        	movl	(%eax), %eax
  203f57: ff 75 f0                     	pushl	-16(%ebp)
  203f5a: 6a 26                        	pushl	$38
  203f5c: 6a 00                        	pushl	$0
  203f5e: 50                           	pushl	%eax
  203f5f: e8 3a e3 ff ff               	calll	-7366 <_ZN5Ecran15afficherChiffreEiii>
  203f64: 83 c4 10                     	addl	$16, %esp
  203f67: eb 15                        	jmp	21 <_ZN7Horloge12afficheHeureEv+0xae>
  203f69: 8b 45 08                     	movl	8(%ebp), %eax
  203f6c: 8b 00                        	movl	(%eax), %eax
  203f6e: ff 75 f0                     	pushl	-16(%ebp)
  203f71: 6a 25                        	pushl	$37
  203f73: 6a 00                        	pushl	$0
  203f75: 50                           	pushl	%eax
  203f76: e8 23 e3 ff ff               	calll	-7389 <_ZN5Ecran15afficherChiffreEiii>
  203f7b: 83 c4 10                     	addl	$16, %esp
  203f7e: 83 7d f4 09                  	cmpl	$9, -12(%ebp)
  203f82: 7f 2b                        	jg	43 <_ZN7Horloge12afficheHeureEv+0xdf>
  203f84: 8b 45 08                     	movl	8(%ebp), %eax
  203f87: 8b 00                        	movl	(%eax), %eax
  203f89: 6a 00                        	pushl	$0
  203f8b: 6a 29                        	pushl	$41
  203f8d: 6a 00                        	pushl	$0
  203f8f: 50                           	pushl	%eax
  203f90: e8 09 e3 ff ff               	calll	-7415 <_ZN5Ecran15afficherChiffreEiii>
  203f95: 83 c4 10                     	addl	$16, %esp
  203f98: 8b 45 08                     	movl	8(%ebp), %eax
  203f9b: 8b 00                        	movl	(%eax), %eax
  203f9d: ff 75 f4                     	pushl	-12(%ebp)
  203fa0: 6a 2a                        	pushl	$42
  203fa2: 6a 00                        	pushl	$0
  203fa4: 50                           	pushl	%eax
  203fa5: e8 f4 e2 ff ff               	calll	-7436 <_ZN5Ecran15afficherChiffreEiii>
  203faa: 83 c4 10                     	addl	$16, %esp
  203fad: eb 15                        	jmp	21 <_ZN7Horloge12afficheHeureEv+0xf4>
  203faf: 8b 45 08                     	movl	8(%ebp), %eax
  203fb2: 8b 00                        	movl	(%eax), %eax
  203fb4: ff 75 f4                     	pushl	-12(%ebp)
  203fb7: 6a 29                        	pushl	$41
  203fb9: 6a 00                        	pushl	$0
  203fbb: 50                           	pushl	%eax
  203fbc: e8 dd e2 ff ff               	calll	-7459 <_ZN5Ecran15afficherChiffreEiii>
  203fc1: 83 c4 10                     	addl	$16, %esp
  203fc4: 90                           	nop
  203fc5: c9                           	leave
  203fc6: c3                           	retl

00203fc7 ticTac(int):
  203fc7: 55                           	pushl	%ebp
  203fc8: 89 e5                        	movl	%esp, %ebp
  203fca: a1 64 91 20 00               	movl	2134372, %eax
  203fcf: 40                           	incl	%eax
  203fd0: a3 64 91 20 00               	movl	%eax, 2134372
  203fd5: a1 64 91 20 00               	movl	2134372, %eax
  203fda: b9 e8 03 00 00               	movl	$1000, %ecx
  203fdf: 99                           	cltd
  203fe0: f7 f9                        	idivl	%ecx
  203fe2: 89 d0                        	movl	%edx, %eax
  203fe4: 85 c0                        	testl	%eax, %eax
  203fe6: 75 2c                        	jne	44 <_Z6ticTaci+0x4d>
  203fe8: a1 68 91 20 00               	movl	2134376, %eax
  203fed: 40                           	incl	%eax
  203fee: a3 68 91 20 00               	movl	%eax, 2134376
  203ff3: a1 60 91 20 00               	movl	2134368, %eax
  203ff8: 83 f8 09                     	cmpl	$9, %eax
  203ffb: 75 0c                        	jne	12 <_Z6ticTaci+0x42>
  203ffd: c7 05 60 91 20 00 00 00 00 00	movl	$0, 2134368
  204007: eb 0b                        	jmp	11 <_Z6ticTaci+0x4d>
  204009: a1 60 91 20 00               	movl	2134368, %eax
  20400e: 40                           	incl	%eax
  20400f: a3 60 91 20 00               	movl	%eax, 2134368
  204014: 90                           	nop
  204015: 5d                           	popl	%ebp
  204016: c3                           	retl

00204017 reboot():
  204017: 55                           	pushl	%ebp
  204018: 89 e5                        	movl	%esp, %ebp
  20401a: 83 ec 08                     	subl	$8, %esp
  20401d: 83 ec 08                     	subl	$8, %esp
  204020: 6a 64                        	pushl	$100
  204022: 68 fe 00 00 00               	pushl	$254
  204027: e8 68 d3 ff ff               	calll	-11416 <_Z11ecrireOctethi>
  20402c: 83 c4 10                     	addl	$16, %esp
  20402f: 90                           	nop
  204030: c9                           	leave
  204031: c3                           	retl

00204032 writechar(int):
  204032: 55                           	pushl	%ebp
  204033: 89 e5                        	movl	%esp, %ebp
  204035: 83 ec 10                     	subl	$16, %esp
  204038: c7 45 fc 00 00 00 00         	movl	$0, -4(%ebp)
  20403f: a1 a4 92 20 00               	movl	2134692, %eax
  204044: 83 e0 01                     	andl	$1, %eax
  204047: 85 c0                        	testl	%eax, %eax
  204049: 0f 85 ec 02 00 00            	jne	748 <_Z9writechari+0x309>
  20404f: 81 7d 08 b9 00 00 00         	cmpl	$185, 8(%ebp)
  204056: 0f 87 9e 05 00 00            	ja	1438 <_Z9writechari+0x5c8>
  20405c: 8b 45 08                     	movl	8(%ebp), %eax
  20405f: c1 e0 02                     	shll	$2, %eax
  204062: 05 84 4b 20 00               	addl	$2116484, %eax
  204067: 8b 00                        	movl	(%eax), %eax
  204069: ff e0                        	jmpl	*%eax
  20406b: c7 45 fc 61 00 00 00         	movl	$97, -4(%ebp)
  204072: e9 84 05 00 00               	jmp	1412 <_Z9writechari+0x5c9>
  204077: c7 45 fc 7a 00 00 00         	movl	$122, -4(%ebp)
  20407e: e9 78 05 00 00               	jmp	1400 <_Z9writechari+0x5c9>
  204083: c7 45 fc 65 00 00 00         	movl	$101, -4(%ebp)
  20408a: e9 6c 05 00 00               	jmp	1388 <_Z9writechari+0x5c9>
  20408f: c7 45 fc 72 00 00 00         	movl	$114, -4(%ebp)
  204096: e9 60 05 00 00               	jmp	1376 <_Z9writechari+0x5c9>
  20409b: c7 45 fc 74 00 00 00         	movl	$116, -4(%ebp)
  2040a2: e9 54 05 00 00               	jmp	1364 <_Z9writechari+0x5c9>
  2040a7: c7 45 fc 79 00 00 00         	movl	$121, -4(%ebp)
  2040ae: e9 48 05 00 00               	jmp	1352 <_Z9writechari+0x5c9>
  2040b3: c7 45 fc 75 00 00 00         	movl	$117, -4(%ebp)
  2040ba: e9 3c 05 00 00               	jmp	1340 <_Z9writechari+0x5c9>
  2040bf: c7 45 fc 69 00 00 00         	movl	$105, -4(%ebp)
  2040c6: e9 30 05 00 00               	jmp	1328 <_Z9writechari+0x5c9>
  2040cb: c7 45 fc 6f 00 00 00         	movl	$111, -4(%ebp)
  2040d2: e9 24 05 00 00               	jmp	1316 <_Z9writechari+0x5c9>
  2040d7: c7 45 fc 70 00 00 00         	movl	$112, -4(%ebp)
  2040de: e9 18 05 00 00               	jmp	1304 <_Z9writechari+0x5c9>
  2040e3: c7 45 fc 71 00 00 00         	movl	$113, -4(%ebp)
  2040ea: e9 0c 05 00 00               	jmp	1292 <_Z9writechari+0x5c9>
  2040ef: c7 45 fc 73 00 00 00         	movl	$115, -4(%ebp)
  2040f6: e9 00 05 00 00               	jmp	1280 <_Z9writechari+0x5c9>
  2040fb: c7 45 fc 64 00 00 00         	movl	$100, -4(%ebp)
  204102: e9 f4 04 00 00               	jmp	1268 <_Z9writechari+0x5c9>
  204107: c7 45 fc 66 00 00 00         	movl	$102, -4(%ebp)
  20410e: e9 e8 04 00 00               	jmp	1256 <_Z9writechari+0x5c9>
  204113: c7 45 fc 67 00 00 00         	movl	$103, -4(%ebp)
  20411a: e9 dc 04 00 00               	jmp	1244 <_Z9writechari+0x5c9>
  20411f: c7 45 fc 68 00 00 00         	movl	$104, -4(%ebp)
  204126: e9 d0 04 00 00               	jmp	1232 <_Z9writechari+0x5c9>
  20412b: c7 45 fc 6a 00 00 00         	movl	$106, -4(%ebp)
  204132: e9 c4 04 00 00               	jmp	1220 <_Z9writechari+0x5c9>
  204137: c7 45 fc 6b 00 00 00         	movl	$107, -4(%ebp)
  20413e: e9 b8 04 00 00               	jmp	1208 <_Z9writechari+0x5c9>
  204143: c7 45 fc 6c 00 00 00         	movl	$108, -4(%ebp)
  20414a: e9 ac 04 00 00               	jmp	1196 <_Z9writechari+0x5c9>
  20414f: c7 45 fc 6d 00 00 00         	movl	$109, -4(%ebp)
  204156: e9 a0 04 00 00               	jmp	1184 <_Z9writechari+0x5c9>
  20415b: c7 45 fc 77 00 00 00         	movl	$119, -4(%ebp)
  204162: e9 94 04 00 00               	jmp	1172 <_Z9writechari+0x5c9>
  204167: c7 45 fc 78 00 00 00         	movl	$120, -4(%ebp)
  20416e: e9 88 04 00 00               	jmp	1160 <_Z9writechari+0x5c9>
  204173: c7 45 fc 63 00 00 00         	movl	$99, -4(%ebp)
  20417a: e9 7c 04 00 00               	jmp	1148 <_Z9writechari+0x5c9>
  20417f: c7 45 fc 76 00 00 00         	movl	$118, -4(%ebp)
  204186: e9 70 04 00 00               	jmp	1136 <_Z9writechari+0x5c9>
  20418b: c7 45 fc 62 00 00 00         	movl	$98, -4(%ebp)
  204192: e9 64 04 00 00               	jmp	1124 <_Z9writechari+0x5c9>
  204197: c7 45 fc 6e 00 00 00         	movl	$110, -4(%ebp)
  20419e: e9 58 04 00 00               	jmp	1112 <_Z9writechari+0x5c9>
  2041a3: c7 45 fc 2c 00 00 00         	movl	$44, -4(%ebp)
  2041aa: e9 4c 04 00 00               	jmp	1100 <_Z9writechari+0x5c9>
  2041af: c7 45 fc 31 00 00 00         	movl	$49, -4(%ebp)
  2041b6: e9 40 04 00 00               	jmp	1088 <_Z9writechari+0x5c9>
  2041bb: c7 45 fc 32 00 00 00         	movl	$50, -4(%ebp)
  2041c2: e9 34 04 00 00               	jmp	1076 <_Z9writechari+0x5c9>
  2041c7: c7 45 fc 33 00 00 00         	movl	$51, -4(%ebp)
  2041ce: e9 28 04 00 00               	jmp	1064 <_Z9writechari+0x5c9>
  2041d3: c7 45 fc 34 00 00 00         	movl	$52, -4(%ebp)
  2041da: e9 1c 04 00 00               	jmp	1052 <_Z9writechari+0x5c9>
  2041df: c7 45 fc 35 00 00 00         	movl	$53, -4(%ebp)
  2041e6: e9 10 04 00 00               	jmp	1040 <_Z9writechari+0x5c9>
  2041eb: c7 45 fc 36 00 00 00         	movl	$54, -4(%ebp)
  2041f2: e9 04 04 00 00               	jmp	1028 <_Z9writechari+0x5c9>
  2041f7: c7 45 fc 37 00 00 00         	movl	$55, -4(%ebp)
  2041fe: e9 f8 03 00 00               	jmp	1016 <_Z9writechari+0x5c9>
  204203: c7 45 fc 38 00 00 00         	movl	$56, -4(%ebp)
  20420a: e9 ec 03 00 00               	jmp	1004 <_Z9writechari+0x5c9>
  20420f: c7 45 fc 39 00 00 00         	movl	$57, -4(%ebp)
  204216: e9 e0 03 00 00               	jmp	992 <_Z9writechari+0x5c9>
  20421b: c7 45 fc 30 00 00 00         	movl	$48, -4(%ebp)
  204222: e9 d4 03 00 00               	jmp	980 <_Z9writechari+0x5c9>
  204227: c7 45 fc 20 00 00 00         	movl	$32, -4(%ebp)
  20422e: e9 c8 03 00 00               	jmp	968 <_Z9writechari+0x5c9>
  204233: c7 45 fc 2d 01 00 00         	movl	$301, -4(%ebp)
  20423a: e9 bc 03 00 00               	jmp	956 <_Z9writechari+0x5c9>
  20423f: c7 45 fc 2e 01 00 00         	movl	$302, -4(%ebp)
  204246: e9 b0 03 00 00               	jmp	944 <_Z9writechari+0x5c9>
  20424b: c7 45 fc 20 00 00 00         	movl	$32, -4(%ebp)
  204252: e9 a4 03 00 00               	jmp	932 <_Z9writechari+0x5c9>
  204257: c7 45 fc 2d 01 00 00         	movl	$301, -4(%ebp)
  20425e: e9 98 03 00 00               	jmp	920 <_Z9writechari+0x5c9>
  204263: c7 45 fc 2e 01 00 00         	movl	$302, -4(%ebp)
  20426a: e9 8c 03 00 00               	jmp	908 <_Z9writechari+0x5c9>
  20426f: c7 45 fc 2f 01 00 00         	movl	$303, -4(%ebp)
  204276: e9 80 03 00 00               	jmp	896 <_Z9writechari+0x5c9>
  20427b: c7 45 fc 30 01 00 00         	movl	$304, -4(%ebp)
  204282: e9 74 03 00 00               	jmp	884 <_Z9writechari+0x5c9>
  204287: c7 45 fc 31 01 00 00         	movl	$305, -4(%ebp)
  20428e: e9 68 03 00 00               	jmp	872 <_Z9writechari+0x5c9>
  204293: c7 45 fc 32 01 00 00         	movl	$306, -4(%ebp)
  20429a: e9 5c 03 00 00               	jmp	860 <_Z9writechari+0x5c9>
  20429f: c7 45 fc 33 01 00 00         	movl	$307, -4(%ebp)
  2042a6: e9 50 03 00 00               	jmp	848 <_Z9writechari+0x5c9>
  2042ab: c7 45 fc 34 01 00 00         	movl	$308, -4(%ebp)
  2042b2: e9 44 03 00 00               	jmp	836 <_Z9writechari+0x5c9>
  2042b7: c7 45 fc 35 01 00 00         	movl	$309, -4(%ebp)
  2042be: e9 38 03 00 00               	jmp	824 <_Z9writechari+0x5c9>
  2042c3: c7 45 fc 36 01 00 00         	movl	$310, -4(%ebp)
  2042ca: e9 2c 03 00 00               	jmp	812 <_Z9writechari+0x5c9>
  2042cf: c7 45 fc 37 01 00 00         	movl	$311, -4(%ebp)
  2042d6: e9 20 03 00 00               	jmp	800 <_Z9writechari+0x5c9>
  2042db: c7 45 fc 38 01 00 00         	movl	$312, -4(%ebp)
  2042e2: e9 14 03 00 00               	jmp	788 <_Z9writechari+0x5c9>
  2042e7: c7 45 fc 3d 00 00 00         	movl	$61, -4(%ebp)
  2042ee: e9 08 03 00 00               	jmp	776 <_Z9writechari+0x5c9>
  2042f3: c7 45 fc 5b 00 00 00         	movl	$91, -4(%ebp)
  2042fa: e9 fc 02 00 00               	jmp	764 <_Z9writechari+0x5c9>
  2042ff: c7 45 fc 5d 00 00 00         	movl	$93, -4(%ebp)
  204306: e9 f0 02 00 00               	jmp	752 <_Z9writechari+0x5c9>
  20430b: c7 45 fc 39 01 00 00         	movl	$313, -4(%ebp)
  204312: e9 e4 02 00 00               	jmp	740 <_Z9writechari+0x5c9>
  204317: c7 45 fc 2f 00 00 00         	movl	$47, -4(%ebp)
  20431e: e9 d8 02 00 00               	jmp	728 <_Z9writechari+0x5c9>
  204323: c7 45 fc 5c 00 00 00         	movl	$92, -4(%ebp)
  20432a: e9 cc 02 00 00               	jmp	716 <_Z9writechari+0x5c9>
  20432f: c7 45 fc 2f 00 00 00         	movl	$47, -4(%ebp)
  204336: e9 c0 02 00 00               	jmp	704 <_Z9writechari+0x5c9>
  20433b: 81 7d 08 b9 00 00 00         	cmpl	$185, 8(%ebp)
  204342: 0f 87 a9 02 00 00            	ja	681 <_Z9writechari+0x5bf>
  204348: 8b 45 08                     	movl	8(%ebp), %eax
  20434b: c1 e0 02                     	shll	$2, %eax
  20434e: 05 6c 4e 20 00               	addl	$2117228, %eax
  204353: 8b 00                        	movl	(%eax), %eax
  204355: ff e0                        	jmpl	*%eax
  204357: c7 45 fc 51 00 00 00         	movl	$81, -4(%ebp)
  20435e: e9 98 02 00 00               	jmp	664 <_Z9writechari+0x5c9>
  204363: c7 45 fc 57 00 00 00         	movl	$87, -4(%ebp)
  20436a: e9 8c 02 00 00               	jmp	652 <_Z9writechari+0x5c9>
  20436f: c7 45 fc 45 00 00 00         	movl	$69, -4(%ebp)
  204376: e9 80 02 00 00               	jmp	640 <_Z9writechari+0x5c9>
  20437b: c7 45 fc 52 00 00 00         	movl	$82, -4(%ebp)
  204382: e9 74 02 00 00               	jmp	628 <_Z9writechari+0x5c9>
  204387: c7 45 fc 54 00 00 00         	movl	$84, -4(%ebp)
  20438e: e9 68 02 00 00               	jmp	616 <_Z9writechari+0x5c9>
  204393: c7 45 fc 59 00 00 00         	movl	$89, -4(%ebp)
  20439a: e9 5c 02 00 00               	jmp	604 <_Z9writechari+0x5c9>
  20439f: c7 45 fc 55 00 00 00         	movl	$85, -4(%ebp)
  2043a6: e9 50 02 00 00               	jmp	592 <_Z9writechari+0x5c9>
  2043ab: c7 45 fc 49 00 00 00         	movl	$73, -4(%ebp)
  2043b2: e9 44 02 00 00               	jmp	580 <_Z9writechari+0x5c9>
  2043b7: c7 45 fc 4f 00 00 00         	movl	$79, -4(%ebp)
  2043be: e9 38 02 00 00               	jmp	568 <_Z9writechari+0x5c9>
  2043c3: c7 45 fc 50 00 00 00         	movl	$80, -4(%ebp)
  2043ca: e9 2c 02 00 00               	jmp	556 <_Z9writechari+0x5c9>
  2043cf: c7 45 fc 41 00 00 00         	movl	$65, -4(%ebp)
  2043d6: e9 20 02 00 00               	jmp	544 <_Z9writechari+0x5c9>
  2043db: c7 45 fc 53 00 00 00         	movl	$83, -4(%ebp)
  2043e2: e9 14 02 00 00               	jmp	532 <_Z9writechari+0x5c9>
  2043e7: c7 45 fc 44 00 00 00         	movl	$68, -4(%ebp)
  2043ee: e9 08 02 00 00               	jmp	520 <_Z9writechari+0x5c9>
  2043f3: c7 45 fc 46 00 00 00         	movl	$70, -4(%ebp)
  2043fa: e9 fc 01 00 00               	jmp	508 <_Z9writechari+0x5c9>
  2043ff: c7 45 fc 47 00 00 00         	movl	$71, -4(%ebp)
  204406: e9 f0 01 00 00               	jmp	496 <_Z9writechari+0x5c9>
  20440b: c7 45 fc 48 00 00 00         	movl	$72, -4(%ebp)
  204412: e9 e4 01 00 00               	jmp	484 <_Z9writechari+0x5c9>
  204417: c7 45 fc 4a 00 00 00         	movl	$74, -4(%ebp)
  20441e: e9 d8 01 00 00               	jmp	472 <_Z9writechari+0x5c9>
  204423: c7 45 fc 4b 00 00 00         	movl	$75, -4(%ebp)
  20442a: e9 cc 01 00 00               	jmp	460 <_Z9writechari+0x5c9>
  20442f: c7 45 fc 4c 00 00 00         	movl	$76, -4(%ebp)
  204436: e9 c0 01 00 00               	jmp	448 <_Z9writechari+0x5c9>
  20443b: c7 45 fc 5a 00 00 00         	movl	$90, -4(%ebp)
  204442: e9 b4 01 00 00               	jmp	436 <_Z9writechari+0x5c9>
  204447: c7 45 fc 58 00 00 00         	movl	$88, -4(%ebp)
  20444e: e9 a8 01 00 00               	jmp	424 <_Z9writechari+0x5c9>
  204453: c7 45 fc 43 00 00 00         	movl	$67, -4(%ebp)
  20445a: e9 9c 01 00 00               	jmp	412 <_Z9writechari+0x5c9>
  20445f: c7 45 fc 56 00 00 00         	movl	$86, -4(%ebp)
  204466: e9 90 01 00 00               	jmp	400 <_Z9writechari+0x5c9>
  20446b: c7 45 fc 42 00 00 00         	movl	$66, -4(%ebp)
  204472: e9 84 01 00 00               	jmp	388 <_Z9writechari+0x5c9>
  204477: c7 45 fc 4e 00 00 00         	movl	$78, -4(%ebp)
  20447e: e9 78 01 00 00               	jmp	376 <_Z9writechari+0x5c9>
  204483: c7 45 fc 4d 00 00 00         	movl	$77, -4(%ebp)
  20448a: e9 6c 01 00 00               	jmp	364 <_Z9writechari+0x5c9>
  20448f: c7 45 fc 21 00 00 00         	movl	$33, -4(%ebp)
  204496: e9 60 01 00 00               	jmp	352 <_Z9writechari+0x5c9>
  20449b: c7 45 fc 40 00 00 00         	movl	$64, -4(%ebp)
  2044a2: e9 54 01 00 00               	jmp	340 <_Z9writechari+0x5c9>
  2044a7: c7 45 fc 23 00 00 00         	movl	$35, -4(%ebp)
  2044ae: e9 48 01 00 00               	jmp	328 <_Z9writechari+0x5c9>
  2044b3: c7 45 fc 24 00 00 00         	movl	$36, -4(%ebp)
  2044ba: e9 3c 01 00 00               	jmp	316 <_Z9writechari+0x5c9>
  2044bf: c7 45 fc 25 00 00 00         	movl	$37, -4(%ebp)
  2044c6: e9 30 01 00 00               	jmp	304 <_Z9writechari+0x5c9>
  2044cb: c7 45 fc 5e 00 00 00         	movl	$94, -4(%ebp)
  2044d2: e9 24 01 00 00               	jmp	292 <_Z9writechari+0x5c9>
  2044d7: c7 45 fc 26 00 00 00         	movl	$38, -4(%ebp)
  2044de: e9 18 01 00 00               	jmp	280 <_Z9writechari+0x5c9>
  2044e3: c7 45 fc 2a 00 00 00         	movl	$42, -4(%ebp)
  2044ea: e9 0c 01 00 00               	jmp	268 <_Z9writechari+0x5c9>
  2044ef: c7 45 fc 28 00 00 00         	movl	$40, -4(%ebp)
  2044f6: e9 00 01 00 00               	jmp	256 <_Z9writechari+0x5c9>
  2044fb: c7 45 fc 29 00 00 00         	movl	$41, -4(%ebp)
  204502: e9 f4 00 00 00               	jmp	244 <_Z9writechari+0x5c9>
  204507: c7 45 fc 20 00 00 00         	movl	$32, -4(%ebp)
  20450e: e9 e8 00 00 00               	jmp	232 <_Z9writechari+0x5c9>
  204513: c7 45 fc 2d 01 00 00         	movl	$301, -4(%ebp)
  20451a: e9 dc 00 00 00               	jmp	220 <_Z9writechari+0x5c9>
  20451f: c7 45 fc 2e 01 00 00         	movl	$302, -4(%ebp)
  204526: e9 d0 00 00 00               	jmp	208 <_Z9writechari+0x5c9>
  20452b: c7 45 fc 20 00 00 00         	movl	$32, -4(%ebp)
  204532: e9 c4 00 00 00               	jmp	196 <_Z9writechari+0x5c9>
  204537: c7 45 fc 2d 01 00 00         	movl	$301, -4(%ebp)
  20453e: e9 b8 00 00 00               	jmp	184 <_Z9writechari+0x5c9>
  204543: c7 45 fc 2e 01 00 00         	movl	$302, -4(%ebp)
  20454a: e9 ac 00 00 00               	jmp	172 <_Z9writechari+0x5c9>
  20454f: c7 45 fc 2f 01 00 00         	movl	$303, -4(%ebp)
  204556: e9 a0 00 00 00               	jmp	160 <_Z9writechari+0x5c9>
  20455b: c7 45 fc 30 01 00 00         	movl	$304, -4(%ebp)
  204562: e9 94 00 00 00               	jmp	148 <_Z9writechari+0x5c9>
  204567: c7 45 fc 31 01 00 00         	movl	$305, -4(%ebp)
  20456e: e9 88 00 00 00               	jmp	136 <_Z9writechari+0x5c9>
  204573: c7 45 fc 32 01 00 00         	movl	$306, -4(%ebp)
  20457a: eb 7f                        	jmp	127 <_Z9writechari+0x5c9>
  20457c: c7 45 fc 33 01 00 00         	movl	$307, -4(%ebp)
  204583: eb 76                        	jmp	118 <_Z9writechari+0x5c9>
  204585: c7 45 fc 34 01 00 00         	movl	$308, -4(%ebp)
  20458c: eb 6d                        	jmp	109 <_Z9writechari+0x5c9>
  20458e: c7 45 fc 35 01 00 00         	movl	$309, -4(%ebp)
  204595: eb 64                        	jmp	100 <_Z9writechari+0x5c9>
  204597: c7 45 fc 36 01 00 00         	movl	$310, -4(%ebp)
  20459e: eb 5b                        	jmp	91 <_Z9writechari+0x5c9>
  2045a0: c7 45 fc 37 01 00 00         	movl	$311, -4(%ebp)
  2045a7: eb 52                        	jmp	82 <_Z9writechari+0x5c9>
  2045a9: c7 45 fc 38 01 00 00         	movl	$312, -4(%ebp)
  2045b0: eb 49                        	jmp	73 <_Z9writechari+0x5c9>
  2045b2: c7 45 fc 2b 00 00 00         	movl	$43, -4(%ebp)
  2045b9: eb 40                        	jmp	64 <_Z9writechari+0x5c9>
  2045bb: c7 45 fc 7b 00 00 00         	movl	$123, -4(%ebp)
  2045c2: eb 37                        	jmp	55 <_Z9writechari+0x5c9>
  2045c4: c7 45 fc 7d 00 00 00         	movl	$125, -4(%ebp)
  2045cb: eb 2e                        	jmp	46 <_Z9writechari+0x5c9>
  2045cd: c7 45 fc 39 01 00 00         	movl	$313, -4(%ebp)
  2045d4: eb 25                        	jmp	37 <_Z9writechari+0x5c9>
  2045d6: c7 45 fc 2f 00 00 00         	movl	$47, -4(%ebp)
  2045dd: eb 1c                        	jmp	28 <_Z9writechari+0x5c9>
  2045df: c7 45 fc 7c 00 00 00         	movl	$124, -4(%ebp)
  2045e6: eb 13                        	jmp	19 <_Z9writechari+0x5c9>
  2045e8: c7 45 fc 3f 00 00 00         	movl	$63, -4(%ebp)
  2045ef: eb 0a                        	jmp	10 <_Z9writechari+0x5c9>
  2045f1: c7 45 fc 00 00 00 00         	movl	$0, -4(%ebp)
  2045f8: eb 01                        	jmp	1 <_Z9writechari+0x5c9>
  2045fa: 90                           	nop
  2045fb: 8b 45 fc                     	movl	-4(%ebp), %eax
  2045fe: c9                           	leave
  2045ff: c3                           	retl

00204600 set_leds():
  204600: 55                           	pushl	%ebp
  204601: 89 e5                        	movl	%esp, %ebp
  204603: 83 ec 08                     	subl	$8, %esp
  204606: 83 ec 08                     	subl	$8, %esp
  204609: 68 ed 00 00 00               	pushl	$237
  20460e: 6a 60                        	pushl	$96
  204610: e8 7f cd ff ff               	calll	-12929 <_Z11ecrireOctethi>
  204615: 83 c4 10                     	addl	$16, %esp
  204618: 90                           	nop
  204619: c9                           	leave
  20461a: c3                           	retl

0020461b handler_clavier(int):
  20461b: 55                           	pushl	%ebp
  20461c: 89 e5                        	movl	%esp, %ebp
  20461e: 83 ec 18                     	subl	$24, %esp
  204621: 83 ec 0c                     	subl	$12, %esp
  204624: 6a 60                        	pushl	$96
  204626: e8 97 cd ff ff               	calll	-12905 <_Z9lireOcteti>
  20462b: 83 c4 10                     	addl	$16, %esp
  20462e: 0f b6 c0                     	movzbl	%al, %eax
  204631: 89 45 f4                     	movl	%eax, -12(%ebp)
  204634: 83 7d f4 01                  	cmpl	$1, -12(%ebp)
  204638: 75 12                        	jne	18 <_Z15handler_clavieri+0x31>
  20463a: a1 ac 92 20 00               	movl	2134700, %eax
  20463f: 85 c0                        	testl	%eax, %eax
  204641: 0f 94 c0                     	sete	%al
  204644: 0f b6 c0                     	movzbl	%al, %eax
  204647: a3 ac 92 20 00               	movl	%eax, 2134700
  20464c: 83 7d f4 3c                  	cmpl	$60, -12(%ebp)
  204650: 75 12                        	jne	18 <_Z15handler_clavieri+0x49>
  204652: a1 b0 92 20 00               	movl	2134704, %eax
  204657: 85 c0                        	testl	%eax, %eax
  204659: 0f 94 c0                     	sete	%al
  20465c: 0f b6 c0                     	movzbl	%al, %eax
  20465f: a3 b0 92 20 00               	movl	%eax, 2134704
  204664: 83 7d f4 43                  	cmpl	$67, -12(%ebp)
  204668: 75 07                        	jne	7 <_Z15handler_clavieri+0x56>
  20466a: a1 b0 92 20 00               	movl	2134704, %eax
  20466f: 85 c0                        	testl	%eax, %eax
  204671: 83 7d f4 3a                  	cmpl	$58, -12(%ebp)
  204675: 75 14                        	jne	20 <_Z15handler_clavieri+0x70>
  204677: a0 a8 92 20 00               	movb	2134696, %al
  20467c: 83 f0 04                     	xorl	$4, %eax
  20467f: a2 a8 92 20 00               	movb	%al, 2134696
  204684: e8 77 ff ff ff               	calll	-137 <_Z8set_ledsv>
  204689: eb 32                        	jmp	50 <_Z15handler_clavieri+0xa2>
  20468b: 83 7d f4 45                  	cmpl	$69, -12(%ebp)
  20468f: 75 14                        	jne	20 <_Z15handler_clavieri+0x8a>
  204691: a0 a8 92 20 00               	movb	2134696, %al
  204696: 83 f0 02                     	xorl	$2, %eax
  204699: a2 a8 92 20 00               	movb	%al, 2134696
  20469e: e8 5d ff ff ff               	calll	-163 <_Z8set_ledsv>
  2046a3: eb 18                        	jmp	24 <_Z15handler_clavieri+0xa2>
  2046a5: 83 7d f4 46                  	cmpl	$70, -12(%ebp)
  2046a9: 75 12                        	jne	18 <_Z15handler_clavieri+0xa2>
  2046ab: a0 a8 92 20 00               	movb	2134696, %al
  2046b0: 83 f0 01                     	xorl	$1, %eax
  2046b3: a2 a8 92 20 00               	movb	%al, 2134696
  2046b8: e8 43 ff ff ff               	calll	-189 <_Z8set_ledsv>
  2046bd: 81 7d f4 b6 00 00 00         	cmpl	$182, -12(%ebp)
  2046c4: 74 77                        	je	119 <_Z15handler_clavieri+0x122>
  2046c6: 81 7d f4 b6 00 00 00         	cmpl	$182, -12(%ebp)
  2046cd: 0f 8f 96 00 00 00            	jg	150 <_Z15handler_clavieri+0x14e>
  2046d3: 81 7d f4 aa 00 00 00         	cmpl	$170, -12(%ebp)
  2046da: 74 39                        	je	57 <_Z15handler_clavieri+0xfa>
  2046dc: 81 7d f4 aa 00 00 00         	cmpl	$170, -12(%ebp)
  2046e3: 0f 8f 80 00 00 00            	jg	128 <_Z15handler_clavieri+0x14e>
  2046e9: 83 7d f4 2a                  	cmpl	$42, -12(%ebp)
  2046ed: 74 08                        	je	8 <_Z15handler_clavieri+0xdc>
  2046ef: 83 7d f4 36                  	cmpl	$54, -12(%ebp)
  2046f3: 74 11                        	je	17 <_Z15handler_clavieri+0xeb>
  2046f5: eb 72                        	jmp	114 <_Z15handler_clavieri+0x14e>
  2046f7: a1 a4 92 20 00               	movl	2134692, %eax
  2046fc: 83 c8 03                     	orl	$3, %eax
  2046ff: a3 a4 92 20 00               	movl	%eax, 2134692
  204704: eb 63                        	jmp	99 <_Z15handler_clavieri+0x14e>
  204706: a1 a4 92 20 00               	movl	2134692, %eax
  20470b: 83 c8 05                     	orl	$5, %eax
  20470e: a3 a4 92 20 00               	movl	%eax, 2134692
  204713: eb 54                        	jmp	84 <_Z15handler_clavieri+0x14e>
  204715: a1 a4 92 20 00               	movl	2134692, %eax
  20471a: 83 e0 fd                     	andl	$-3, %eax
  20471d: a3 a4 92 20 00               	movl	%eax, 2134692
  204722: a1 a4 92 20 00               	movl	2134692, %eax
  204727: 83 e0 04                     	andl	$4, %eax
  20472a: 85 c0                        	testl	%eax, %eax
  20472c: 75 37                        	jne	55 <_Z15handler_clavieri+0x14a>
  20472e: a1 a4 92 20 00               	movl	2134692, %eax
  204733: 83 e0 fe                     	andl	$-2, %eax
  204736: a3 a4 92 20 00               	movl	%eax, 2134692
  20473b: eb 28                        	jmp	40 <_Z15handler_clavieri+0x14a>
  20473d: a1 a4 92 20 00               	movl	2134692, %eax
  204742: 83 e0 fb                     	andl	$-5, %eax
  204745: a3 a4 92 20 00               	movl	%eax, 2134692
  20474a: a1 a4 92 20 00               	movl	2134692, %eax
  20474f: 83 e0 02                     	andl	$2, %eax
  204752: 85 c0                        	testl	%eax, %eax
  204754: 75 12                        	jne	18 <_Z15handler_clavieri+0x14d>
  204756: a1 a4 92 20 00               	movl	2134692, %eax
  20475b: 83 e0 fe                     	andl	$-2, %eax
  20475e: a3 a4 92 20 00               	movl	%eax, 2134692
  204763: eb 03                        	jmp	3 <_Z15handler_clavieri+0x14d>
  204765: 90                           	nop
  204766: eb 01                        	jmp	1 <_Z15handler_clavieri+0x14e>
  204768: 90                           	nop
  204769: 83 7d f4 7f                  	cmpl	$127, -12(%ebp)
  20476d: 0f 8f e5 00 00 00            	jg	229 <_Z15handler_clavieri+0x23d>
  204773: 83 7d f4 0a                  	cmpl	$10, -12(%ebp)
  204777: 83 ec 0c                     	subl	$12, %esp
  20477a: ff 75 f4                     	pushl	-12(%ebp)
  20477d: e8 b0 f8 ff ff               	calll	-1872 <_Z9writechari>
  204782: 83 c4 10                     	addl	$16, %esp
  204785: 89 45 f0                     	movl	%eax, -16(%ebp)
  204788: 81 7d f0 39 01 00 00         	cmpl	$313, -16(%ebp)
  20478f: 0f 84 bc 00 00 00            	je	188 <_Z15handler_clavieri+0x236>
  204795: 81 7d f0 39 01 00 00         	cmpl	$313, -16(%ebp)
  20479c: 7f 79                        	jg	121 <_Z15handler_clavieri+0x1fc>
  20479e: 81 7d f0 2e 01 00 00         	cmpl	$302, -16(%ebp)
  2047a5: 74 31                        	je	49 <_Z15handler_clavieri+0x1bd>
  2047a7: 81 7d f0 2e 01 00 00         	cmpl	$302, -16(%ebp)
  2047ae: 7f 67                        	jg	103 <_Z15handler_clavieri+0x1fc>
  2047b0: 81 7d f0 2d 01 00 00         	cmpl	$301, -16(%ebp)
  2047b7: 0f 84 97 00 00 00            	je	151 <_Z15handler_clavieri+0x239>
  2047bd: 81 7d f0 2d 01 00 00         	cmpl	$301, -16(%ebp)
  2047c4: 7f 51                        	jg	81 <_Z15handler_clavieri+0x1fc>
  2047c6: 83 7d f0 00                  	cmpl	$0, -16(%ebp)
  2047ca: 0f 84 87 00 00 00            	je	135 <_Z15handler_clavieri+0x23c>
  2047d0: 83 7d f0 71                  	cmpl	$113, -16(%ebp)
  2047d4: 74 3a                        	je	58 <_Z15handler_clavieri+0x1f5>
  2047d6: eb 3f                        	jmp	63 <_Z15handler_clavieri+0x1fc>
  2047d8: c6 05 a0 92 20 00 01         	movb	$1, 2134688
  2047df: a1 80 91 20 00               	movl	2134400, %eax
  2047e4: c6 80 a0 91 20 00 0a         	movb	$10, 2134432(%eax)
  2047eb: a1 80 91 20 00               	movl	2134400, %eax
  2047f0: 3d ff 00 00 00               	cmpl	$255, %eax
  2047f5: 7f 0b                        	jg	11 <_Z15handler_clavieri+0x1e7>
  2047f7: a1 80 91 20 00               	movl	2134400, %eax
  2047fc: 40                           	incl	%eax
  2047fd: a3 80 91 20 00               	movl	%eax, 2134400
  204802: a1 80 91 20 00               	movl	2134400, %eax
  204807: c6 80 a0 91 20 00 00         	movb	$0, 2134432(%eax)
  20480e: eb 48                        	jmp	72 <_Z15handler_clavieri+0x23d>
  204810: e8 02 f8 ff ff               	calll	-2046 <_ZL6rebootv>
  204815: eb 41                        	jmp	65 <_Z15handler_clavieri+0x23d>
  204817: c6 05 a0 92 20 00 01         	movb	$1, 2134688
  20481e: a1 80 91 20 00               	movl	2134400, %eax
  204823: 8b 55 f0                     	movl	-16(%ebp), %edx
  204826: 88 90 a0 91 20 00            	movb	%dl, 2134432(%eax)
  20482c: a1 80 91 20 00               	movl	2134400, %eax
  204831: 3d ff 00 00 00               	cmpl	$255, %eax
  204836: 7f 0b                        	jg	11 <_Z15handler_clavieri+0x228>
  204838: a1 80 91 20 00               	movl	2134400, %eax
  20483d: 40                           	incl	%eax
  20483e: a3 80 91 20 00               	movl	%eax, 2134400
  204843: a1 80 91 20 00               	movl	2134400, %eax
  204848: c6 80 a0 91 20 00 00         	movb	$0, 2134432(%eax)
  20484f: eb 07                        	jmp	7 <_Z15handler_clavieri+0x23d>
  204851: 90                           	nop
  204852: eb 04                        	jmp	4 <_Z15handler_clavieri+0x23d>
  204854: 90                           	nop
  204855: eb 01                        	jmp	1 <_Z15handler_clavieri+0x23d>
  204857: 90                           	nop
  204858: 90                           	nop
  204859: c9                           	leave
  20485a: c3                           	retl

0020485b mem_setup(void*, int, Ecran*):
  20485b: 55                           	pushl	%ebp
  20485c: 89 e5                        	movl	%esp, %ebp
  20485e: 8b 45 08                     	movl	8(%ebp), %eax
  204861: a3 b4 92 20 00               	movl	%eax, 2134708
  204866: 8b 45 0c                     	movl	12(%ebp), %eax
  204869: a3 b8 92 20 00               	movl	%eax, 2134712
  20486e: 8b 45 10                     	movl	16(%ebp), %eax
  204871: a3 bc 92 20 00               	movl	%eax, 2134716
  204876: 90                           	nop
  204877: 5d                           	popl	%ebp
  204878: c3                           	retl

00204879 getmem(unsigned long):
  204879: 55                           	pushl	%ebp
  20487a: 89 e5                        	movl	%esp, %ebp
  20487c: 83 ec 18                     	subl	$24, %esp
  20487f: a1 b4 92 20 00               	movl	2134708, %eax
  204884: 89 45 f4                     	movl	%eax, -12(%ebp)
  204887: a1 bc 92 20 00               	movl	2134716, %eax
  20488c: 83 ec 0c                     	subl	$12, %esp
  20488f: 50                           	pushl	%eax
  204890: e8 3f d6 ff ff               	calll	-10689 <_ZN5Ecran11sautDeLigneEv>
  204895: 83 c4 10                     	addl	$16, %esp
  204898: a1 bc 92 20 00               	movl	2134716, %eax
  20489d: 83 ec 04                     	subl	$4, %esp
  2048a0: 6a 0f                        	pushl	$15
  2048a2: 68 54 51 20 00               	pushl	$2117972
  2048a7: 50                           	pushl	%eax
  2048a8: e8 0f d8 ff ff               	calll	-10225 <_ZN5Ecran11afficherMotEPKc7Couleur>
  2048ad: 83 c4 10                     	addl	$16, %esp
  2048b0: a1 bc 92 20 00               	movl	2134716, %eax
  2048b5: 83 ec 0c                     	subl	$12, %esp
  2048b8: 50                           	pushl	%eax
  2048b9: e8 16 d6 ff ff               	calll	-10730 <_ZN5Ecran11sautDeLigneEv>
  2048be: 83 c4 10                     	addl	$16, %esp
  2048c1: a1 bc 92 20 00               	movl	2134716, %eax
  2048c6: 83 ec 04                     	subl	$4, %esp
  2048c9: 6a 0f                        	pushl	$15
  2048cb: 68 68 51 20 00               	pushl	$2117992
  2048d0: 50                           	pushl	%eax
  2048d1: e8 e6 d7 ff ff               	calll	-10266 <_ZN5Ecran11afficherMotEPKc7Couleur>
  2048d6: 83 c4 10                     	addl	$16, %esp
  2048d9: a1 bc 92 20 00               	movl	2134716, %eax
  2048de: 83 ec 0c                     	subl	$12, %esp
  2048e1: 50                           	pushl	%eax
  2048e2: e8 ed d5 ff ff               	calll	-10771 <_ZN5Ecran11sautDeLigneEv>
  2048e7: 83 c4 10                     	addl	$16, %esp
  2048ea: a1 bc 92 20 00               	movl	2134716, %eax
  2048ef: 83 ec 04                     	subl	$4, %esp
  2048f2: 6a 0f                        	pushl	$15
  2048f4: 68 8c 51 20 00               	pushl	$2118028
  2048f9: 50                           	pushl	%eax
  2048fa: e8 bd d7 ff ff               	calll	-10307 <_ZN5Ecran11afficherMotEPKc7Couleur>
  2048ff: 83 c4 10                     	addl	$16, %esp
  204902: a1 bc 92 20 00               	movl	2134716, %eax
  204907: 83 ec 0c                     	subl	$12, %esp
  20490a: 50                           	pushl	%eax
  20490b: e8 c4 d5 ff ff               	calll	-10812 <_ZN5Ecran11sautDeLigneEv>
  204910: 83 c4 10                     	addl	$16, %esp
  204913: a1 b4 92 20 00               	movl	2134708, %eax
  204918: 89 45 f0                     	movl	%eax, -16(%ebp)
  20491b: 8b 45 f4                     	movl	-12(%ebp), %eax
  20491e: a3 b4 92 20 00               	movl	%eax, 2134708
  204923: 8b 45 f0                     	movl	-16(%ebp), %eax
  204926: c9                           	leave
  204927: c3                           	retl

00204928 operator new(unsigned long):
  204928: 55                           	pushl	%ebp
  204929: 89 e5                        	movl	%esp, %ebp
  20492b: 83 ec 18                     	subl	$24, %esp
  20492e: 83 ec 0c                     	subl	$12, %esp
  204931: ff 75 08                     	pushl	8(%ebp)
  204934: e8 40 ff ff ff               	calll	-192 <_Z6getmemm>
  204939: 83 c4 10                     	addl	$16, %esp
  20493c: 89 45 f4                     	movl	%eax, -12(%ebp)
  20493f: a1 bc 92 20 00               	movl	2134716, %eax
  204944: 83 ec 04                     	subl	$4, %esp
  204947: 6a 0f                        	pushl	$15
  204949: 68 a0 51 20 00               	pushl	$2118048
  20494e: 50                           	pushl	%eax
  20494f: e8 68 d7 ff ff               	calll	-10392 <_ZN5Ecran11afficherMotEPKc7Couleur>
  204954: 83 c4 10                     	addl	$16, %esp
  204957: a1 bc 92 20 00               	movl	2134716, %eax
  20495c: 83 ec 0c                     	subl	$12, %esp
  20495f: 50                           	pushl	%eax
  204960: e8 6f d5 ff ff               	calll	-10897 <_ZN5Ecran11sautDeLigneEv>
  204965: 83 c4 10                     	addl	$16, %esp
  204968: a1 bc 92 20 00               	movl	2134716, %eax
  20496d: 83 ec 04                     	subl	$4, %esp
  204970: 6a 0f                        	pushl	$15
  204972: 68 c8 51 20 00               	pushl	$2118088
  204977: 50                           	pushl	%eax
  204978: e8 3f d7 ff ff               	calll	-10433 <_ZN5Ecran11afficherMotEPKc7Couleur>
  20497d: 83 c4 10                     	addl	$16, %esp
  204980: a1 bc 92 20 00               	movl	2134716, %eax
  204985: 83 ec 0c                     	subl	$12, %esp
  204988: 50                           	pushl	%eax
  204989: e8 46 d5 ff ff               	calll	-10938 <_ZN5Ecran11sautDeLigneEv>
  20498e: 83 c4 10                     	addl	$16, %esp
  204991: 8b 45 f4                     	movl	-12(%ebp), %eax
  204994: c9                           	leave
  204995: c3                           	retl
